

Microchip MPLAB XC8 Assembler V2.46 build 20240104201356 
                                                                                               Wed Oct 09 14:53:40 2024

Microchip MPLAB XC8 C Compiler v2.46 (Free license) build 20240104201356 Og1 
     1                           	processor	16F877A
     2                           	pagewidth 120
     3                           	opt	flic
     4                           	psect	idataCOMMON,global,class=CODE,delta=2,noexec
     5                           	psect	idataBANK0,global,class=CODE,delta=2,noexec
     6                           	psect	idataBANK1,global,class=CODE,delta=2,noexec
     7                           	psect	strings,global,class=STRING,delta=2,noexec
     8                           	psect	stringtext,global,reloc=256,class=STRCODE,delta=2,noexec
     9                           	psect	cinit,global,class=CODE,merge=1,delta=2
    10                           	psect	bssCOMMON,global,class=COMMON,space=1,delta=1,noexec
    11                           	psect	dataCOMMON,global,class=COMMON,space=1,delta=1,noexec
    12                           	psect	bssBANK0,global,class=BANK0,space=1,delta=1,noexec
    13                           	psect	dataBANK0,global,class=BANK0,space=1,delta=1,noexec
    14                           	psect	bssBANK1,global,class=BANK1,space=1,delta=1,noexec
    15                           	psect	dataBANK1,global,class=BANK1,space=1,delta=1,noexec
    16                           	psect	inittext,global,class=CODE,delta=2
    17                           	psect	clrtext,global,class=CODE,delta=2
    18                           	psect	cstackBANK1,global,class=BANK1,space=1,delta=1,noexec
    19                           	psect	cstackCOMMON,global,class=COMMON,space=1,delta=1,noexec
    20                           	psect	cstackBANK0,global,class=BANK0,space=1,delta=1,noexec
    21                           	psect	maintext,global,class=CODE,split=1,delta=2
    22                           	psect	text1,local,class=CODE,merge=1,delta=2
    23                           	psect	text2,local,class=CODE,merge=1,delta=2,group=2
    24                           	psect	text3,local,class=CODE,merge=1,delta=2
    25                           	psect	text4,local,class=CODE,merge=1,delta=2,group=1
    26                           	psect	text5,local,class=CODE,merge=1,delta=2,group=1
    27                           	psect	text6,local,class=CODE,merge=1,delta=2,group=1
    28                           	psect	text7,local,class=CODE,merge=1,delta=2
    29                           	psect	text8,local,class=CODE,merge=1,delta=2,group=2
    30                           	psect	text9,local,class=CODE,merge=1,delta=2
    31                           	psect	text10,local,class=CODE,merge=1,delta=2
    32                           	psect	text11,local,class=CODE,merge=1,delta=2
    33                           	psect	text12,local,class=CODE,merge=1,delta=2
    34                           	psect	text13,local,class=CODE,merge=1,delta=2
    35                           	psect	text14,local,class=CODE,merge=1,delta=2
    36                           	psect	text15,local,class=CODE,merge=1,delta=2
    37                           	psect	text16,local,class=CODE,merge=1,delta=2,group=2
    38                           	psect	text17,local,class=CODE,merge=1,delta=2
    39                           	psect	text18,local,class=CODE,merge=1,delta=2
    40                           	psect	text19,local,class=CODE,merge=1,delta=2
    41                           	psect	text20,local,class=CODE,merge=1,delta=2
    42                           	psect	text21,local,class=CODE,merge=1,delta=2,group=1
    43                           	psect	text22,local,class=CODE,merge=1,delta=2
    44                           	psect	text23,local,class=CODE,merge=1,delta=2
    45                           	psect	text24,local,class=CODE,merge=1,delta=2
    46                           	psect	text25,local,class=CODE,merge=1,delta=2
    47                           	psect	text26,local,class=CODE,merge=1,delta=2
    48                           	psect	text27,local,class=CODE,merge=1,delta=2
    49                           	psect	text28,local,class=CODE,merge=1,delta=2
    50                           	psect	text29,local,class=CODE,merge=1,delta=2
    51                           	psect	text30,local,class=CODE,merge=1,delta=2
    52                           	psect	text31,local,class=CODE,merge=1,delta=2
    53                           	psect	text32,local,class=CODE,merge=1,delta=2,group=1
    54                           	psect	text33,local,class=CODE,merge=1,delta=2
    55                           	psect	text34,local,class=CODE,merge=1,delta=2
    56                           	psect	text35,local,class=CODE,merge=1,delta=2
    57                           	psect	text36,local,class=CODE,merge=1,delta=2
    58                           	psect	text37,local,class=CODE,merge=1,delta=2
    59                           	psect	text38,local,class=CODE,merge=1,delta=2
    60                           	psect	text39,local,class=CODE,merge=1,delta=2
    61                           	psect	text40,local,class=CODE,merge=1,delta=2
    62                           	psect	text41,local,class=CODE,merge=1,delta=2
    63                           	psect	text42,local,class=CODE,merge=1,delta=2
    64                           	psect	text43,local,class=CODE,merge=1,delta=2
    65                           	psect	text44,local,class=CODE,merge=1,delta=2
    66                           	psect	text45,local,class=CODE,merge=1,delta=2
    67                           	psect	text46,local,class=CODE,merge=1,delta=2,group=1
    68                           	psect	text47,local,class=CODE,merge=1,delta=2,group=1
    69                           	psect	text48,local,class=CODE,merge=1,delta=2
    70                           	psect	text49,local,class=CODE,merge=1,delta=2
    71                           	psect	text50,local,class=CODE,merge=1,delta=2
    72                           	psect	text51,local,class=CODE,merge=1,delta=2
    73                           	psect	intentry,global,class=CODE,delta=2
    74                           	psect	idloc,global,abs,ovrld,class=IDLOC,space=5,delta=2,noexec
    75                           	psect	config,global,abs,ovrld,class=CONFIG,space=4,delta=2,noexec
    76                           	dabs	1,0x7E,2
    77     0000                     
    78                           ; Version 2.40
    79                           ; Generated 17/11/2021 GMT
    80                           ; 
    81                           ; Copyright © 2021, Microchip Technology Inc. and its subsidiaries ("Microchip")
    82                           ; All rights reserved.
    83                           ; 
    84                           ; This software is developed by Microchip Technology Inc. and its subsidiaries ("Microch
      +                          ip").
    85                           ; 
    86                           ; Redistribution and use in source and binary forms, with or without modification, are
    87                           ; permitted provided that the following conditions are met:
    88                           ; 
    89                           ;     1. Redistributions of source code must retain the above copyright notice, this lis
      +                          t of
    90                           ;        conditions and the following disclaimer.
    91                           ; 
    92                           ;     2. Redistributions in binary form must reproduce the above copyright notice, this 
      +                          list
    93                           ;        of conditions and the following disclaimer in the documentation and/or other
    94                           ;        materials provided with the distribution. Publication is not required when
    95                           ;        this file is used in an embedded application.
    96                           ; 
    97                           ;     3. Microchip's name may not be used to endorse or promote products derived from th
      +                          is
    98                           ;        software without specific prior written permission.
    99                           ; 
   100                           ; THIS SOFTWARE IS PROVIDED BY MICROCHIP "AS IS" AND ANY EXPRESS OR IMPLIED WARRANTIES,
   101                           ; INCLUDING, BUT NOT LIMITED TO, THE IMPLIED WARRANTIES OF MERCHANTABILITY AND FITNESS F
      +                          OR
   102                           ; PURPOSE ARE DISCLAIMED.  IN NO EVENT SHALL MICROCHIP BE LIABLE FOR ANY DIRECT, INDIREC
      +                          T,
   103                           ; INCIDENTAL, SPECIAL, EXEMPLARY, OR CONSEQUENTIAL DAMAGES (INCLUDING BUT NOT LIMITED TO
   104                           ; PROCUREMENT OF SUBSTITUTE GOODS OR SERVICES; LOSS OF USE, DATA OR PROFITS; OR BUSINESS
   105                           ; INTERRUPTION) HOWSOEVER CAUSED AND ON ANY THEORY OF LIABILITY, WHETHER IN CONTRACT, ST
      +                          RICT
   106                           ; LIABILITY, OR TORT (INCLUDING NEGLIGENCE OR OTHERWISE) ARISING IN ANY WAY OUT OF THE U
      +                          SE OF
   107                           ; THIS SOFTWARE, EVEN IF ADVISED OF THE POSSIBILITY OF SUCH DAMAGE.
   108                           ; 
   109                           ; 
   110                           ; Code-generator required, PIC16F877A Definitions
   111                           ; 
   112                           ; SFR Addresses
   113     0000                     	;# 
   114     0001                     	;# 
   115     0002                     	;# 
   116     0003                     	;# 
   117     0004                     	;# 
   118     0005                     	;# 
   119     0006                     	;# 
   120     0007                     	;# 
   121     0008                     	;# 
   122     0009                     	;# 
   123     000A                     	;# 
   124     000B                     	;# 
   125     000C                     	;# 
   126     000D                     	;# 
   127     000E                     	;# 
   128     000E                     	;# 
   129     000F                     	;# 
   130     0010                     	;# 
   131     0011                     	;# 
   132     0012                     	;# 
   133     0013                     	;# 
   134     0014                     	;# 
   135     0015                     	;# 
   136     0015                     	;# 
   137     0016                     	;# 
   138     0017                     	;# 
   139     0018                     	;# 
   140     0019                     	;# 
   141     001A                     	;# 
   142     001B                     	;# 
   143     001B                     	;# 
   144     001C                     	;# 
   145     001D                     	;# 
   146     001E                     	;# 
   147     001F                     	;# 
   148     0081                     	;# 
   149     0085                     	;# 
   150     0086                     	;# 
   151     0087                     	;# 
   152     0088                     	;# 
   153     0089                     	;# 
   154     008C                     	;# 
   155     008D                     	;# 
   156     008E                     	;# 
   157     0091                     	;# 
   158     0092                     	;# 
   159     0093                     	;# 
   160     0094                     	;# 
   161     0098                     	;# 
   162     0099                     	;# 
   163     009C                     	;# 
   164     009D                     	;# 
   165     009E                     	;# 
   166     009F                     	;# 
   167     010C                     	;# 
   168     010D                     	;# 
   169     010E                     	;# 
   170     010F                     	;# 
   171     018C                     	;# 
   172     018D                     	;# 
   173     0000                     	;# 
   174     0001                     	;# 
   175     0002                     	;# 
   176     0003                     	;# 
   177     0004                     	;# 
   178     0005                     	;# 
   179     0006                     	;# 
   180     0007                     	;# 
   181     0008                     	;# 
   182     0009                     	;# 
   183     000A                     	;# 
   184     000B                     	;# 
   185     000C                     	;# 
   186     000D                     	;# 
   187     000E                     	;# 
   188     000E                     	;# 
   189     000F                     	;# 
   190     0010                     	;# 
   191     0011                     	;# 
   192     0012                     	;# 
   193     0013                     	;# 
   194     0014                     	;# 
   195     0015                     	;# 
   196     0015                     	;# 
   197     0016                     	;# 
   198     0017                     	;# 
   199     0018                     	;# 
   200     0019                     	;# 
   201     001A                     	;# 
   202     001B                     	;# 
   203     001B                     	;# 
   204     001C                     	;# 
   205     001D                     	;# 
   206     001E                     	;# 
   207     001F                     	;# 
   208     0081                     	;# 
   209     0085                     	;# 
   210     0086                     	;# 
   211     0087                     	;# 
   212     0088                     	;# 
   213     0089                     	;# 
   214     008C                     	;# 
   215     008D                     	;# 
   216     008E                     	;# 
   217     0091                     	;# 
   218     0092                     	;# 
   219     0093                     	;# 
   220     0094                     	;# 
   221     0098                     	;# 
   222     0099                     	;# 
   223     009C                     	;# 
   224     009D                     	;# 
   225     009E                     	;# 
   226     009F                     	;# 
   227     010C                     	;# 
   228     010D                     	;# 
   229     010E                     	;# 
   230     010F                     	;# 
   231     018C                     	;# 
   232     018D                     	;# 
   233     0000                     	;# 
   234     0001                     	;# 
   235     0002                     	;# 
   236     0003                     	;# 
   237     0004                     	;# 
   238     0005                     	;# 
   239     0006                     	;# 
   240     0007                     	;# 
   241     0008                     	;# 
   242     0009                     	;# 
   243     000A                     	;# 
   244     000B                     	;# 
   245     000C                     	;# 
   246     000D                     	;# 
   247     000E                     	;# 
   248     000E                     	;# 
   249     000F                     	;# 
   250     0010                     	;# 
   251     0011                     	;# 
   252     0012                     	;# 
   253     0013                     	;# 
   254     0014                     	;# 
   255     0015                     	;# 
   256     0015                     	;# 
   257     0016                     	;# 
   258     0017                     	;# 
   259     0018                     	;# 
   260     0019                     	;# 
   261     001A                     	;# 
   262     001B                     	;# 
   263     001B                     	;# 
   264     001C                     	;# 
   265     001D                     	;# 
   266     001E                     	;# 
   267     001F                     	;# 
   268     0081                     	;# 
   269     0085                     	;# 
   270     0086                     	;# 
   271     0087                     	;# 
   272     0088                     	;# 
   273     0089                     	;# 
   274     008C                     	;# 
   275     008D                     	;# 
   276     008E                     	;# 
   277     0091                     	;# 
   278     0092                     	;# 
   279     0093                     	;# 
   280     0094                     	;# 
   281     0098                     	;# 
   282     0099                     	;# 
   283     009C                     	;# 
   284     009D                     	;# 
   285     009E                     	;# 
   286     009F                     	;# 
   287     010C                     	;# 
   288     010D                     	;# 
   289     010E                     	;# 
   290     010F                     	;# 
   291     018C                     	;# 
   292     018D                     	;# 
   293     0000                     	;# 
   294     0001                     	;# 
   295     0002                     	;# 
   296     0003                     	;# 
   297     0004                     	;# 
   298     0005                     	;# 
   299     0006                     	;# 
   300     0007                     	;# 
   301     0008                     	;# 
   302     0009                     	;# 
   303     000A                     	;# 
   304     000B                     	;# 
   305     000C                     	;# 
   306     000D                     	;# 
   307     000E                     	;# 
   308     000E                     	;# 
   309     000F                     	;# 
   310     0010                     	;# 
   311     0011                     	;# 
   312     0012                     	;# 
   313     0013                     	;# 
   314     0014                     	;# 
   315     0015                     	;# 
   316     0015                     	;# 
   317     0016                     	;# 
   318     0017                     	;# 
   319     0018                     	;# 
   320     0019                     	;# 
   321     001A                     	;# 
   322     001B                     	;# 
   323     001B                     	;# 
   324     001C                     	;# 
   325     001D                     	;# 
   326     001E                     	;# 
   327     001F                     	;# 
   328     0081                     	;# 
   329     0085                     	;# 
   330     0086                     	;# 
   331     0087                     	;# 
   332     0088                     	;# 
   333     0089                     	;# 
   334     008C                     	;# 
   335     008D                     	;# 
   336     008E                     	;# 
   337     0091                     	;# 
   338     0092                     	;# 
   339     0093                     	;# 
   340     0094                     	;# 
   341     0098                     	;# 
   342     0099                     	;# 
   343     009C                     	;# 
   344     009D                     	;# 
   345     009E                     	;# 
   346     009F                     	;# 
   347     010C                     	;# 
   348     010D                     	;# 
   349     010E                     	;# 
   350     010F                     	;# 
   351     018C                     	;# 
   352     018D                     	;# 
   353     0000                     	;# 
   354     0001                     	;# 
   355     0002                     	;# 
   356     0003                     	;# 
   357     0004                     	;# 
   358     0005                     	;# 
   359     0006                     	;# 
   360     0007                     	;# 
   361     0008                     	;# 
   362     0009                     	;# 
   363     000A                     	;# 
   364     000B                     	;# 
   365     000C                     	;# 
   366     000D                     	;# 
   367     000E                     	;# 
   368     000E                     	;# 
   369     000F                     	;# 
   370     0010                     	;# 
   371     0011                     	;# 
   372     0012                     	;# 
   373     0013                     	;# 
   374     0014                     	;# 
   375     0015                     	;# 
   376     0015                     	;# 
   377     0016                     	;# 
   378     0017                     	;# 
   379     0018                     	;# 
   380     0019                     	;# 
   381     001A                     	;# 
   382     001B                     	;# 
   383     001B                     	;# 
   384     001C                     	;# 
   385     001D                     	;# 
   386     001E                     	;# 
   387     001F                     	;# 
   388     0081                     	;# 
   389     0085                     	;# 
   390     0086                     	;# 
   391     0087                     	;# 
   392     0088                     	;# 
   393     0089                     	;# 
   394     008C                     	;# 
   395     008D                     	;# 
   396     008E                     	;# 
   397     0091                     	;# 
   398     0092                     	;# 
   399     0093                     	;# 
   400     0094                     	;# 
   401     0098                     	;# 
   402     0099                     	;# 
   403     009C                     	;# 
   404     009D                     	;# 
   405     009E                     	;# 
   406     009F                     	;# 
   407     010C                     	;# 
   408     010D                     	;# 
   409     010E                     	;# 
   410     010F                     	;# 
   411     018C                     	;# 
   412     018D                     	;# 
   413     0000                     	;# 
   414     0001                     	;# 
   415     0002                     	;# 
   416     0003                     	;# 
   417     0004                     	;# 
   418     0005                     	;# 
   419     0006                     	;# 
   420     0007                     	;# 
   421     0008                     	;# 
   422     0009                     	;# 
   423     000A                     	;# 
   424     000B                     	;# 
   425     000C                     	;# 
   426     000D                     	;# 
   427     000E                     	;# 
   428     000E                     	;# 
   429     000F                     	;# 
   430     0010                     	;# 
   431     0011                     	;# 
   432     0012                     	;# 
   433     0013                     	;# 
   434     0014                     	;# 
   435     0015                     	;# 
   436     0015                     	;# 
   437     0016                     	;# 
   438     0017                     	;# 
   439     0018                     	;# 
   440     0019                     	;# 
   441     001A                     	;# 
   442     001B                     	;# 
   443     001B                     	;# 
   444     001C                     	;# 
   445     001D                     	;# 
   446     001E                     	;# 
   447     001F                     	;# 
   448     0081                     	;# 
   449     0085                     	;# 
   450     0086                     	;# 
   451     0087                     	;# 
   452     0088                     	;# 
   453     0089                     	;# 
   454     008C                     	;# 
   455     008D                     	;# 
   456     008E                     	;# 
   457     0091                     	;# 
   458     0092                     	;# 
   459     0093                     	;# 
   460     0094                     	;# 
   461     0098                     	;# 
   462     0099                     	;# 
   463     009C                     	;# 
   464     009D                     	;# 
   465     009E                     	;# 
   466     009F                     	;# 
   467     010C                     	;# 
   468     010D                     	;# 
   469     010E                     	;# 
   470     010F                     	;# 
   471     018C                     	;# 
   472     018D                     	;# 
   473     0000                     	;# 
   474     0001                     	;# 
   475     0002                     	;# 
   476     0003                     	;# 
   477     0004                     	;# 
   478     0005                     	;# 
   479     0006                     	;# 
   480     0007                     	;# 
   481     0008                     	;# 
   482     0009                     	;# 
   483     000A                     	;# 
   484     000B                     	;# 
   485     000C                     	;# 
   486     000D                     	;# 
   487     000E                     	;# 
   488     000E                     	;# 
   489     000F                     	;# 
   490     0010                     	;# 
   491     0011                     	;# 
   492     0012                     	;# 
   493     0013                     	;# 
   494     0014                     	;# 
   495     0015                     	;# 
   496     0015                     	;# 
   497     0016                     	;# 
   498     0017                     	;# 
   499     0018                     	;# 
   500     0019                     	;# 
   501     001A                     	;# 
   502     001B                     	;# 
   503     001B                     	;# 
   504     001C                     	;# 
   505     001D                     	;# 
   506     001E                     	;# 
   507     001F                     	;# 
   508     0081                     	;# 
   509     0085                     	;# 
   510     0086                     	;# 
   511     0087                     	;# 
   512     0088                     	;# 
   513     0089                     	;# 
   514     008C                     	;# 
   515     008D                     	;# 
   516     008E                     	;# 
   517     0091                     	;# 
   518     0092                     	;# 
   519     0093                     	;# 
   520     0094                     	;# 
   521     0098                     	;# 
   522     0099                     	;# 
   523     009C                     	;# 
   524     009D                     	;# 
   525     009E                     	;# 
   526     009F                     	;# 
   527     010C                     	;# 
   528     010D                     	;# 
   529     010E                     	;# 
   530     010F                     	;# 
   531     018C                     	;# 
   532     018D                     	;# 
   533     0000                     	;# 
   534     0001                     	;# 
   535     0002                     	;# 
   536     0003                     	;# 
   537     0004                     	;# 
   538     0005                     	;# 
   539     0006                     	;# 
   540     0007                     	;# 
   541     0008                     	;# 
   542     0009                     	;# 
   543     000A                     	;# 
   544     000B                     	;# 
   545     000C                     	;# 
   546     000D                     	;# 
   547     000E                     	;# 
   548     000E                     	;# 
   549     000F                     	;# 
   550     0010                     	;# 
   551     0011                     	;# 
   552     0012                     	;# 
   553     0013                     	;# 
   554     0014                     	;# 
   555     0015                     	;# 
   556     0015                     	;# 
   557     0016                     	;# 
   558     0017                     	;# 
   559     0018                     	;# 
   560     0019                     	;# 
   561     001A                     	;# 
   562     001B                     	;# 
   563     001B                     	;# 
   564     001C                     	;# 
   565     001D                     	;# 
   566     001E                     	;# 
   567     001F                     	;# 
   568     0081                     	;# 
   569     0085                     	;# 
   570     0086                     	;# 
   571     0087                     	;# 
   572     0088                     	;# 
   573     0089                     	;# 
   574     008C                     	;# 
   575     008D                     	;# 
   576     008E                     	;# 
   577     0091                     	;# 
   578     0092                     	;# 
   579     0093                     	;# 
   580     0094                     	;# 
   581     0098                     	;# 
   582     0099                     	;# 
   583     009C                     	;# 
   584     009D                     	;# 
   585     009E                     	;# 
   586     009F                     	;# 
   587     010C                     	;# 
   588     010D                     	;# 
   589     010E                     	;# 
   590     010F                     	;# 
   591     018C                     	;# 
   592     018D                     	;# 
   593     0000                     	;# 
   594     0001                     	;# 
   595     0002                     	;# 
   596     0003                     	;# 
   597     0004                     	;# 
   598     0005                     	;# 
   599     0006                     	;# 
   600     0007                     	;# 
   601     0008                     	;# 
   602     0009                     	;# 
   603     000A                     	;# 
   604     000B                     	;# 
   605     000C                     	;# 
   606     000D                     	;# 
   607     000E                     	;# 
   608     000E                     	;# 
   609     000F                     	;# 
   610     0010                     	;# 
   611     0011                     	;# 
   612     0012                     	;# 
   613     0013                     	;# 
   614     0014                     	;# 
   615     0015                     	;# 
   616     0015                     	;# 
   617     0016                     	;# 
   618     0017                     	;# 
   619     0018                     	;# 
   620     0019                     	;# 
   621     001A                     	;# 
   622     001B                     	;# 
   623     001B                     	;# 
   624     001C                     	;# 
   625     001D                     	;# 
   626     001E                     	;# 
   627     001F                     	;# 
   628     0081                     	;# 
   629     0085                     	;# 
   630     0086                     	;# 
   631     0087                     	;# 
   632     0088                     	;# 
   633     0089                     	;# 
   634     008C                     	;# 
   635     008D                     	;# 
   636     008E                     	;# 
   637     0091                     	;# 
   638     0092                     	;# 
   639     0093                     	;# 
   640     0094                     	;# 
   641     0098                     	;# 
   642     0099                     	;# 
   643     009C                     	;# 
   644     009D                     	;# 
   645     009E                     	;# 
   646     009F                     	;# 
   647     010C                     	;# 
   648     010D                     	;# 
   649     010E                     	;# 
   650     010F                     	;# 
   651     018C                     	;# 
   652     018D                     	;# 
   653     0000                     	;# 
   654     0001                     	;# 
   655     0002                     	;# 
   656     0003                     	;# 
   657     0004                     	;# 
   658     0005                     	;# 
   659     0006                     	;# 
   660     0007                     	;# 
   661     0008                     	;# 
   662     0009                     	;# 
   663     000A                     	;# 
   664     000B                     	;# 
   665     000C                     	;# 
   666     000D                     	;# 
   667     000E                     	;# 
   668     000E                     	;# 
   669     000F                     	;# 
   670     0010                     	;# 
   671     0011                     	;# 
   672     0012                     	;# 
   673     0013                     	;# 
   674     0014                     	;# 
   675     0015                     	;# 
   676     0015                     	;# 
   677     0016                     	;# 
   678     0017                     	;# 
   679     0018                     	;# 
   680     0019                     	;# 
   681     001A                     	;# 
   682     001B                     	;# 
   683     001B                     	;# 
   684     001C                     	;# 
   685     001D                     	;# 
   686     001E                     	;# 
   687     001F                     	;# 
   688     0081                     	;# 
   689     0085                     	;# 
   690     0086                     	;# 
   691     0087                     	;# 
   692     0088                     	;# 
   693     0089                     	;# 
   694     008C                     	;# 
   695     008D                     	;# 
   696     008E                     	;# 
   697     0091                     	;# 
   698     0092                     	;# 
   699     0093                     	;# 
   700     0094                     	;# 
   701     0098                     	;# 
   702     0099                     	;# 
   703     009C                     	;# 
   704     009D                     	;# 
   705     009E                     	;# 
   706     009F                     	;# 
   707     010C                     	;# 
   708     010D                     	;# 
   709     010E                     	;# 
   710     010F                     	;# 
   711     018C                     	;# 
   712     018D                     	;# 
   713     0000                     	;# 
   714     0001                     	;# 
   715     0002                     	;# 
   716     0003                     	;# 
   717     0004                     	;# 
   718     0005                     	;# 
   719     0006                     	;# 
   720     0007                     	;# 
   721     0008                     	;# 
   722     0009                     	;# 
   723     000A                     	;# 
   724     000B                     	;# 
   725     000C                     	;# 
   726     000D                     	;# 
   727     000E                     	;# 
   728     000E                     	;# 
   729     000F                     	;# 
   730     0010                     	;# 
   731     0011                     	;# 
   732     0012                     	;# 
   733     0013                     	;# 
   734     0014                     	;# 
   735     0015                     	;# 
   736     0015                     	;# 
   737     0016                     	;# 
   738     0017                     	;# 
   739     0018                     	;# 
   740     0019                     	;# 
   741     001A                     	;# 
   742     001B                     	;# 
   743     001B                     	;# 
   744     001C                     	;# 
   745     001D                     	;# 
   746     001E                     	;# 
   747     001F                     	;# 
   748     0081                     	;# 
   749     0085                     	;# 
   750     0086                     	;# 
   751     0087                     	;# 
   752     0088                     	;# 
   753     0089                     	;# 
   754     008C                     	;# 
   755     008D                     	;# 
   756     008E                     	;# 
   757     0091                     	;# 
   758     0092                     	;# 
   759     0093                     	;# 
   760     0094                     	;# 
   761     0098                     	;# 
   762     0099                     	;# 
   763     009C                     	;# 
   764     009D                     	;# 
   765     009E                     	;# 
   766     009F                     	;# 
   767     010C                     	;# 
   768     010D                     	;# 
   769     010E                     	;# 
   770     010F                     	;# 
   771     018C                     	;# 
   772     018D                     	;# 
   773     0000                     	;# 
   774     0001                     	;# 
   775     0002                     	;# 
   776     0003                     	;# 
   777     0004                     	;# 
   778     0005                     	;# 
   779     0006                     	;# 
   780     0007                     	;# 
   781     0008                     	;# 
   782     0009                     	;# 
   783     000A                     	;# 
   784     000B                     	;# 
   785     000C                     	;# 
   786     000D                     	;# 
   787     000E                     	;# 
   788     000E                     	;# 
   789     000F                     	;# 
   790     0010                     	;# 
   791     0011                     	;# 
   792     0012                     	;# 
   793     0013                     	;# 
   794     0014                     	;# 
   795     0015                     	;# 
   796     0015                     	;# 
   797     0016                     	;# 
   798     0017                     	;# 
   799     0018                     	;# 
   800     0019                     	;# 
   801     001A                     	;# 
   802     001B                     	;# 
   803     001B                     	;# 
   804     001C                     	;# 
   805     001D                     	;# 
   806     001E                     	;# 
   807     001F                     	;# 
   808     0081                     	;# 
   809     0085                     	;# 
   810     0086                     	;# 
   811     0087                     	;# 
   812     0088                     	;# 
   813     0089                     	;# 
   814     008C                     	;# 
   815     008D                     	;# 
   816     008E                     	;# 
   817     0091                     	;# 
   818     0092                     	;# 
   819     0093                     	;# 
   820     0094                     	;# 
   821     0098                     	;# 
   822     0099                     	;# 
   823     009C                     	;# 
   824     009D                     	;# 
   825     009E                     	;# 
   826     009F                     	;# 
   827     010C                     	;# 
   828     010D                     	;# 
   829     010E                     	;# 
   830     010F                     	;# 
   831     018C                     	;# 
   832     018D                     	;# 
   833                           
   834                           	psect	idataCOMMON
   835     06FF                     __pidataCOMMON:
   836                           
   837                           ;initializer for read_digital_keypad@key_state
   838     06FF  343F               	retlw	63
   839                           
   840                           	psect	idataBANK0
   841     10A2                     __pidataBANK0:
   842                           
   843                           ;initializer for _record_count
   844     10A2  34FF               	retlw	255
   845     10A3  34FF               	retlw	255
   846                           
   847                           ;initializer for _pos
   848     10A4  34FF               	retlw	255
   849     10A5  34FF               	retlw	255
   850                           
   851                           ;initializer for store_records_EEPROM@addr
   852     10A6  3405               	retlw	5
   853                           
   854                           	psect	idataBANK1
   855     1187                     __pidataBANK1:
   856                           
   857                           ;initializer for _gear
   858     1187  34C7               	retlw	low (STR_1| (0+32768))
   859     1188  3488               	retlw	high (STR_1| (0+32768))
   860     1189  34CD               	retlw	low (STR_2| (0+32768))
   861     118A  3488               	retlw	high (STR_2| (0+32768))
   862     118B  34B2               	retlw	low (STR_3| (0+32768))
   863     118C  3488               	retlw	high (STR_3| (0+32768))
   864     118D  34B5               	retlw	low (STR_4| (0+32768))
   865     118E  3488               	retlw	high (STR_4| (0+32768))
   866     118F  34B8               	retlw	low (STR_5| (0+32768))
   867     1190  3488               	retlw	high (STR_5| (0+32768))
   868     1191  34BB               	retlw	low (STR_6| (0+32768))
   869     1192  3488               	retlw	high (STR_6| (0+32768))
   870                           
   871                           ;initializer for _menu
   872     1193  348F               	retlw	low (STR_19| (0+32768))
   873     1194  3488               	retlw	high (STR_19| (0+32768))
   874     1195  347C               	retlw	low (STR_20| (0+32768))
   875     1196  3488               	retlw	high (STR_20| (0+32768))
   876     1197  343E               	retlw	low (STR_21| (0+32768))
   877     1198  3488               	retlw	high (STR_21| (0+32768))
   878     1199  3486               	retlw	low (STR_22| (0+32768))
   879     119A  3488               	retlw	high (STR_22| (0+32768))
   880     119B  34FA               	retlw	low (STR_23| (0+32768))
   881     119C  3487               	retlw	high (STR_23| (0+32768))
   882                           
   883                           ;initializer for main@F1249
   884     119D  344F               	retlw	79
   885     119E  344E               	retlw	78
   886     119F  3400               	retlw	0
   887     0019                     _TXREG	set	25
   888     001A                     _RCREG	set	26
   889     0001                     _TMR0	set	1
   890     001E                     _ADRESH	set	30
   891     0006                     _PORTB	set	6
   892     0013                     _SSPBUF	set	19
   893     0008                     _PORTD	set	8
   894     0064                     _TXIF	set	100
   895     0065                     _RCIF	set	101
   896     00C4                     _CREN	set	196
   897     00C7                     _SPEN	set	199
   898     0061                     _TMR2IF	set	97
   899     0091                     _T2CKPS1	set	145
   900     0090                     _T2CKPS0	set	144
   901     005D                     _TMR0IE	set	93
   902     0092                     _TMR2ON	set	146
   903     005E                     _PEIE	set	94
   904     005F                     _GIE	set	95
   905     00FA                     _nDONE	set	250
   906     00FA                     _GO	set	250
   907     00F8                     _ADON	set	248
   908     00A5                     _SSPEN	set	165
   909     00A3                     _SSPM3	set	163
   910     0049                     _RE1	set	73
   911     004A                     _RE2	set	74
   912     0099                     _SPBRG	set	153
   913     0092                     _PR2	set	146
   914     009E                     _ADRESL	set	158
   915     0086                     _TRISB	set	134
   916     0091                     _SSPCON2	set	145
   917     0093                     _SSPADD	set	147
   918     0088                     _TRISD	set	136
   919     0461                     _TMR2IE	set	1121
   920     040B                     _PSA	set	1035
   921     040D                     _T0CS	set	1037
   922     04FF                     _ADFM	set	1279
   923     048E                     _ACKSTAT	set	1166
   924     048C                     _ACKEN	set	1164
   925     048D                     _ACKDT	set	1165
   926     048B                     _RCEN	set	1163
   927     048A                     _PEN	set	1162
   928     0488                     _SEN	set	1160
   929     04A2                     _R_nW	set	1186
   930     0449                     _TRISE1	set	1097
   931     044A                     _TRISE2	set	1098
   932                           
   933                           	psect	strings
   934     1000                     __pstrings:
   935     1000                     stringtab:
   936     1000                     __stringtab:
   937                           
   938                           ;	String table - string pointers are 2 bytes each
   939     1000  1BFF               	btfsc	btemp+1,7
   940     1001  280A               	ljmp	stringcode
   941     1002  1383               	bcf	3,7
   942     1003  187F               	btfsc	btemp+1,0
   943     1004  1783               	bsf	3,7
   944     1005  0800               	movf	0,w
   945     1006  0A84               	incf	4,f
   946     1007  1903               	skipnz
   947     1008  0AFF               	incf	btemp+1,f
   948     1009  0008               	return
   949     100A                     stringcode:
   950     100A  087F               	movf	btemp+1,w
   951     100B  397F               	andlw	127
   952     100C  008A               	movwf	10
   953     100D  0804               	movf	4,w
   954     100E  0A84               	incf	4,f
   955     100F  1903               	skipnz
   956     1010  0AFF               	incf	btemp+1,f
   957     1011  0082               	movwf	2
   958     1012                     __stringbase:
   959     1012                     __end_of__stringtab:
   960                           
   961                           	psect	stringtext
   962     0700                     __pstringtext:
   963     0700                     STR_37:
   964     0700  3420               	retlw	32	;' '
   965     0701  3423               	retlw	35	;'#'
   966     0702  3420               	retlw	32	;' '
   967     0703  3420               	retlw	32	;' '
   968     0704  3420               	retlw	32	;' '
   969     0705  3420               	retlw	32	;' '
   970     0706  3420               	retlw	32	;' '
   971     0707  3454               	retlw	84	;'T'
   972     0708  3469               	retlw	105	;'i'
   973     0709  346D               	retlw	109	;'m'
   974     070A  3465               	retlw	101	;'e'
   975     070B  3420               	retlw	32	;' '
   976     070C  3420               	retlw	32	;' '
   977     070D  3420               	retlw	32	;' '
   978     070E  3420               	retlw	32	;' '
   979     070F  3420               	retlw	32	;' '
   980     0710  3420               	retlw	32	;' '
   981     0711  3420               	retlw	32	;' '
   982     0712  3420               	retlw	32	;' '
   983     0713  3445               	retlw	69	;'E'
   984     0714  3476               	retlw	118	;'v'
   985     0715  3465               	retlw	101	;'e'
   986     0716  346E               	retlw	110	;'n'
   987     0717  3474               	retlw	116	;'t'
   988     0718  3420               	retlw	32	;' '
   989     0719  3420               	retlw	32	;' '
   990     071A  3420               	retlw	32	;' '
   991     071B  3420               	retlw	32	;' '
   992     071C  3420               	retlw	32	;' '
   993     071D  3420               	retlw	32	;' '
   994     071E  3420               	retlw	32	;' '
   995     071F  3453               	retlw	83	;'S'
   996     0720  3470               	retlw	112	;'p'
   997     0721  3465               	retlw	101	;'e'
   998     0722  3465               	retlw	101	;'e'
   999     0723  3464               	retlw	100	;'d'
  1000     0724  3400               	retlw	0
  1001     0725                     STR_35:
  1002     0725  344E               	retlw	78	;'N'
  1003     0726  346F               	retlw	111	;'o'
  1004     0727  3420               	retlw	32	;' '
  1005     0728  346C               	retlw	108	;'l'
  1006     0729  346F               	retlw	111	;'o'
  1007     072A  3467               	retlw	103	;'g'
  1008     072B  3473               	retlw	115	;'s'
  1009     072C  3420               	retlw	32	;' '
  1010     072D  3461               	retlw	97	;'a'
  1011     072E  3476               	retlw	118	;'v'
  1012     072F  3461               	retlw	97	;'a'
  1013     0730  3469               	retlw	105	;'i'
  1014     0731  346C               	retlw	108	;'l'
  1015     0732  3461               	retlw	97	;'a'
  1016     0733  3462               	retlw	98	;'b'
  1017     0734  346C               	retlw	108	;'l'
  1018     0735  3465               	retlw	101	;'e'
  1019     0736  3400               	retlw	0
  1020     0737                     STR_32:
  1021     0737  3420               	retlw	32	;' '
  1022     0738  3420               	retlw	32	;' '
  1023     0739  3420               	retlw	32	;' '
  1024     073A  3420               	retlw	32	;' '
  1025     073B  344E               	retlw	78	;'N'
  1026     073C  346F               	retlw	111	;'o'
  1027     073D  3420               	retlw	32	;' '
  1028     073E  346C               	retlw	108	;'l'
  1029     073F  346F               	retlw	111	;'o'
  1030     0740  3467               	retlw	103	;'g'
  1031     0741  3473               	retlw	115	;'s'
  1032     0742  3420               	retlw	32	;' '
  1033     0743  3420               	retlw	32	;' '
  1034     0744  3420               	retlw	32	;' '
  1035     0745  3420               	retlw	32	;' '
  1036     0746  3420               	retlw	32	;' '
  1037     0747  3400               	retlw	0
  1038     0748                     STR_48:
  1039     0748  3450               	retlw	80	;'P'
  1040     0749  3461               	retlw	97	;'a'
  1041     074A  3473               	retlw	115	;'s'
  1042     074B  3473               	retlw	115	;'s'
  1043     074C  3477               	retlw	119	;'w'
  1044     074D  346F               	retlw	111	;'o'
  1045     074E  3472               	retlw	114	;'r'
  1046     074F  3464               	retlw	100	;'d'
  1047     0750  3420               	retlw	32	;' '
  1048     0751  3463               	retlw	99	;'c'
  1049     0752  3468               	retlw	104	;'h'
  1050     0753  3461               	retlw	97	;'a'
  1051     0754  346E               	retlw	110	;'n'
  1052     0755  3467               	retlw	103	;'g'
  1053     0756  3465               	retlw	101	;'e'
  1054     0757  3464               	retlw	100	;'d'
  1055     0758  3400               	retlw	0
  1056     0759                     STR_47:
  1057     0759  3452               	retlw	82	;'R'
  1058     075A  3465               	retlw	101	;'e'
  1059     075B  342D               	retlw	45	;'-'
  1060     075C  3465               	retlw	101	;'e'
  1061     075D  346E               	retlw	110	;'n'
  1062     075E  3474               	retlw	116	;'t'
  1063     075F  3465               	retlw	101	;'e'
  1064     0760  3472               	retlw	114	;'r'
  1065     0761  3420               	retlw	32	;' '
  1066     0762  346E               	retlw	110	;'n'
  1067     0763  3465               	retlw	101	;'e'
  1068     0764  3477               	retlw	119	;'w'
  1069     0765  3420               	retlw	32	;' '
  1070     0766  3470               	retlw	112	;'p'
  1071     0767  3477               	retlw	119	;'w'
  1072     0768  3464               	retlw	100	;'d'
  1073     0769  3400               	retlw	0
  1074     076A                     STR_50:
  1075     076A  3450               	retlw	80	;'P'
  1076     076B  3461               	retlw	97	;'a'
  1077     076C  3473               	retlw	115	;'s'
  1078     076D  3473               	retlw	115	;'s'
  1079     076E  3477               	retlw	119	;'w'
  1080     076F  346F               	retlw	111	;'o'
  1081     0770  3472               	retlw	114	;'r'
  1082     0771  3464               	retlw	100	;'d'
  1083     0772  3420               	retlw	32	;' '
  1084     0773  3420               	retlw	32	;' '
  1085     0774  3463               	retlw	99	;'c'
  1086     0775  3468               	retlw	104	;'h'
  1087     0776  3461               	retlw	97	;'a'
  1088     0777  346E               	retlw	110	;'n'
  1089     0778  3467               	retlw	103	;'g'
  1090     0779  3465               	retlw	101	;'e'
  1091     077A  3400               	retlw	0
  1092     077B                     STR_7:
  1093     077B  3455               	retlw	85	;'U'
  1094     077C  3441               	retlw	65	;'A'
  1095     077D  3452               	retlw	82	;'R'
  1096     077E  3454               	retlw	84	;'T'
  1097     077F  3420               	retlw	32	;' '
  1098     0780  3454               	retlw	84	;'T'
  1099     0781  3465               	retlw	101	;'e'
  1100     0782  3473               	retlw	115	;'s'
  1101     0783  3474               	retlw	116	;'t'
  1102     0784  3420               	retlw	32	;' '
  1103     0785  3443               	retlw	67	;'C'
  1104     0786  346F               	retlw	111	;'o'
  1105     0787  3464               	retlw	100	;'d'
  1106     0788  3465               	retlw	101	;'e'
  1107     0789  340A               	retlw	10
  1108     078A  340D               	retlw	13
  1109     078B  3400               	retlw	0
  1110     078C                     STR_12:
  1111     078C  3423               	retlw	35	;'#'
  1112     078D  3420               	retlw	32	;' '
  1113     078E  3454               	retlw	84	;'T'
  1114     078F  3449               	retlw	73	;'I'
  1115     0790  344D               	retlw	77	;'M'
  1116     0791  3445               	retlw	69	;'E'
  1117     0792  3420               	retlw	32	;' '
  1118     0793  3420               	retlw	32	;' '
  1119     0794  3420               	retlw	32	;' '
  1120     0795  3420               	retlw	32	;' '
  1121     0796  3420               	retlw	32	;' '
  1122     0797  3445               	retlw	69	;'E'
  1123     0798  3420               	retlw	32	;' '
  1124     0799  3420               	retlw	32	;' '
  1125     079A  3453               	retlw	83	;'S'
  1126     079B  3450               	retlw	80	;'P'
  1127     079C  3400               	retlw	0
  1128     079D                     STR_41:
  1129     079D  3454               	retlw	84	;'T'
  1130     079E  3469               	retlw	105	;'i'
  1131     079F  346D               	retlw	109	;'m'
  1132     07A0  3465               	retlw	101	;'e'
  1133     07A1  3420               	retlw	32	;' '
  1134     07A2  3428               	retlw	40	;'('
  1135     07A3  3448               	retlw	72	;'H'
  1136     07A4  3448               	retlw	72	;'H'
  1137     07A5  343A               	retlw	58	;':'
  1138     07A6  344D               	retlw	77	;'M'
  1139     07A7  344D               	retlw	77	;'M'
  1140     07A8  343A               	retlw	58	;':'
  1141     07A9  3453               	retlw	83	;'S'
  1142     07AA  3453               	retlw	83	;'S'
  1143     07AB  3429               	retlw	41	;')'
  1144     07AC  3400               	retlw	0
  1145     07AD                     STR_26:
  1146     07AD  3459               	retlw	89	;'Y'
  1147     07AE  346F               	retlw	111	;'o'
  1148     07AF  3475               	retlw	117	;'u'
  1149     07B0  3420               	retlw	32	;' '
  1150     07B1  3461               	retlw	97	;'a'
  1151     07B2  3472               	retlw	114	;'r'
  1152     07B3  3465               	retlw	101	;'e'
  1153     07B4  3420               	retlw	32	;' '
  1154     07B5  3442               	retlw	66	;'B'
  1155     07B6  346C               	retlw	108	;'l'
  1156     07B7  346F               	retlw	111	;'o'
  1157     07B8  3463               	retlw	99	;'c'
  1158     07B9  346B               	retlw	107	;'k'
  1159     07BA  3465               	retlw	101	;'e'
  1160     07BB  3464               	retlw	100	;'d'
  1161     07BC  3400               	retlw	0
  1162     07BD                     STR_14:
  1163     07BD  3420               	retlw	32	;' '
  1164     07BE  344F               	retlw	79	;'O'
  1165     07BF  3450               	retlw	80	;'P'
  1166     07C0  3445               	retlw	69	;'E'
  1167     07C1  344E               	retlw	78	;'N'
  1168     07C2  3420               	retlw	32	;' '
  1169     07C3  3454               	retlw	84	;'T'
  1170     07C4  3445               	retlw	69	;'E'
  1171     07C5  3452               	retlw	82	;'R'
  1172     07C6  3441               	retlw	65	;'A'
  1173     07C7  3454               	retlw	84	;'T'
  1174     07C8  3445               	retlw	69	;'E'
  1175     07C9  3452               	retlw	82	;'R'
  1176     07CA  344D               	retlw	77	;'M'
  1177     07CB  3420               	retlw	32	;' '
  1178     07CC  3400               	retlw	0
  1179     07CD                     STR_29:
  1180     07CD  3457               	retlw	87	;'W'
  1181     07CE  3472               	retlw	114	;'r'
  1182     07CF  346F               	retlw	111	;'o'
  1183     07D0  346E               	retlw	110	;'n'
  1184     07D1  3467               	retlw	103	;'g'
  1185     07D2  3420               	retlw	32	;' '
  1186     07D3  3450               	retlw	80	;'P'
  1187     07D4  3461               	retlw	97	;'a'
  1188     07D5  3473               	retlw	115	;'s'
  1189     07D6  3473               	retlw	115	;'s'
  1190     07D7  3477               	retlw	119	;'w'
  1191     07D8  346F               	retlw	111	;'o'
  1192     07D9  3472               	retlw	114	;'r'
  1193     07DA  3464               	retlw	100	;'d'
  1194     07DB  3400               	retlw	0
  1195     07DC                     STR_16:
  1196     07DC  3445               	retlw	69	;'E'
  1197     07DD  346E               	retlw	110	;'n'
  1198     07DE  3474               	retlw	116	;'t'
  1199     07DF  3465               	retlw	101	;'e'
  1200     07E0  3472               	retlw	114	;'r'
  1201     07E1  3420               	retlw	32	;' '
  1202     07E2  344E               	retlw	78	;'N'
  1203     07E3  3465               	retlw	101	;'e'
  1204     07E4  3477               	retlw	119	;'w'
  1205     07E5  3420               	retlw	32	;' '
  1206     07E6  3450               	retlw	80	;'P'
  1207     07E7  3477               	retlw	119	;'w'
  1208     07E8  3464               	retlw	100	;'d'
  1209     07E9  343A               	retlw	58	;':'
  1210     07EA  3400               	retlw	0
  1211     07EB                     STR_10:
  1212     07EB  3445               	retlw	69	;'E'
  1213     07EC  346E               	retlw	110	;'n'
  1214     07ED  3474               	retlw	116	;'t'
  1215     07EE  3465               	retlw	101	;'e'
  1216     07EF  3472               	retlw	114	;'r'
  1217     07F0  3420               	retlw	32	;' '
  1218     07F1  3450               	retlw	80	;'P'
  1219     07F2  3461               	retlw	97	;'a'
  1220     07F3  3473               	retlw	115	;'s'
  1221     07F4  3473               	retlw	115	;'s'
  1222     07F5  3477               	retlw	119	;'w'
  1223     07F6  346F               	retlw	111	;'o'
  1224     07F7  3472               	retlw	114	;'r'
  1225     07F8  3464               	retlw	100	;'d'
  1226     07F9  3400               	retlw	0
  1227     07FA                     STR_23:
  1228     07FA  3443               	retlw	67	;'C'
  1229     07FB  3468               	retlw	104	;'h'
  1230     07FC  3461               	retlw	97	;'a'
  1231     07FD  346E               	retlw	110	;'n'
  1232     07FE  3467               	retlw	103	;'g'
  1233     07FF  3465               	retlw	101	;'e'
  1234     0800  3420               	retlw	32	;' '
  1235     0801  3450               	retlw	80	;'P'
  1236     0802  3461               	retlw	97	;'a'
  1237     0803  3473               	retlw	115	;'s'
  1238     0804  3473               	retlw	115	;'s'
  1239     0805  3477               	retlw	119	;'w'
  1240     0806  3464               	retlw	100	;'d'
  1241     0807  3400               	retlw	0
  1242     0808                     STR_25:
  1243     0808  344C               	retlw	76	;'L'
  1244     0809  346F               	retlw	111	;'o'
  1245     080A  3467               	retlw	103	;'g'
  1246     080B  3469               	retlw	105	;'i'
  1247     080C  346E               	retlw	110	;'n'
  1248     080D  3420               	retlw	32	;' '
  1249     080E  3453               	retlw	83	;'S'
  1250     080F  3475               	retlw	117	;'u'
  1251     0810  3463               	retlw	99	;'c'
  1252     0811  3463               	retlw	99	;'c'
  1253     0812  3465               	retlw	101	;'e'
  1254     0813  3473               	retlw	115	;'s'
  1255     0814  3473               	retlw	115	;'s'
  1256     0815  3400               	retlw	0
  1257     0816                     STR_30:
  1258     0816  3461               	retlw	97	;'a'
  1259     0817  3474               	retlw	116	;'t'
  1260     0818  3474               	retlw	116	;'t'
  1261     0819  3465               	retlw	101	;'e'
  1262     081A  346D               	retlw	109	;'m'
  1263     081B  3470               	retlw	112	;'p'
  1264     081C  3474               	retlw	116	;'t'
  1265     081D  3473               	retlw	115	;'s'
  1266     081E  3420               	retlw	32	;' '
  1267     081F  346C               	retlw	108	;'l'
  1268     0820  3465               	retlw	101	;'e'
  1269     0821  3466               	retlw	102	;'f'
  1270     0822  3474               	retlw	116	;'t'
  1271     0823  3400               	retlw	0
  1272     0824                     STR_42:
  1273     0824  3454               	retlw	84	;'T'
  1274     0825  3469               	retlw	105	;'i'
  1275     0826  346D               	retlw	109	;'m'
  1276     0827  3465               	retlw	101	;'e'
  1277     0828  3420               	retlw	32	;' '
  1278     0829  3463               	retlw	99	;'c'
  1279     082A  3468               	retlw	104	;'h'
  1280     082B  3461               	retlw	97	;'a'
  1281     082C  346E               	retlw	110	;'n'
  1282     082D  3467               	retlw	103	;'g'
  1283     082E  3465               	retlw	101	;'e'
  1284     082F  3464               	retlw	100	;'d'
  1285     0830  3400               	retlw	0
  1286     0831                     STR_33:
  1287     0831  344C               	retlw	76	;'L'
  1288     0832  346F               	retlw	111	;'o'
  1289     0833  3467               	retlw	103	;'g'
  1290     0834  3473               	retlw	115	;'s'
  1291     0835  3420               	retlw	32	;' '
  1292     0836  3463               	retlw	99	;'c'
  1293     0837  346C               	retlw	108	;'l'
  1294     0838  3465               	retlw	101	;'e'
  1295     0839  3461               	retlw	97	;'a'
  1296     083A  3472               	retlw	114	;'r'
  1297     083B  3465               	retlw	101	;'e'
  1298     083C  3464               	retlw	100	;'d'
  1299     083D  3400               	retlw	0
  1300     083E                     STR_21:
  1301     083E  3444               	retlw	68	;'D'
  1302     083F  346F               	retlw	111	;'o'
  1303     0840  3477               	retlw	119	;'w'
  1304     0841  346E               	retlw	110	;'n'
  1305     0842  346C               	retlw	108	;'l'
  1306     0843  346F               	retlw	111	;'o'
  1307     0844  3461               	retlw	97	;'a'
  1308     0845  3464               	retlw	100	;'d'
  1309     0846  3420               	retlw	32	;' '
  1310     0847  344C               	retlw	76	;'L'
  1311     0848  346F               	retlw	111	;'o'
  1312     0849  3467               	retlw	103	;'g'
  1313     084A  3400               	retlw	0
  1314     084B                     STR_43:
  1315     084B  3453               	retlw	83	;'S'
  1316     084C  3475               	retlw	117	;'u'
  1317     084D  3463               	retlw	99	;'c'
  1318     084E  3463               	retlw	99	;'c'
  1319     084F  3465               	retlw	101	;'e'
  1320     0850  3473               	retlw	115	;'s'
  1321     0851  3473               	retlw	115	;'s'
  1322     0852  3466               	retlw	102	;'f'
  1323     0853  3475               	retlw	117	;'u'
  1324     0854  346C               	retlw	108	;'l'
  1325     0855  346C               	retlw	108	;'l'
  1326     0856  3479               	retlw	121	;'y'
  1327     0857  3400               	retlw	0
  1328     0858                     STR_34:
  1329     0858  3473               	retlw	115	;'s'
  1330     0859  3475               	retlw	117	;'u'
  1331     085A  3463               	retlw	99	;'c'
  1332     085B  3463               	retlw	99	;'c'
  1333     085C  3465               	retlw	101	;'e'
  1334     085D  3473               	retlw	115	;'s'
  1335     085E  3473               	retlw	115	;'s'
  1336     085F  3466               	retlw	102	;'f'
  1337     0860  3475               	retlw	117	;'u'
  1338     0861  346C               	retlw	108	;'l'
  1339     0862  346C               	retlw	108	;'l'
  1340     0863  3479               	retlw	121	;'y'
  1341     0864  3400               	retlw	0
  1342     0865                     STR_27:
  1343     0865  3457               	retlw	87	;'W'
  1344     0866  3461               	retlw	97	;'a'
  1345     0867  3469               	retlw	105	;'i'
  1346     0868  3474               	retlw	116	;'t'
  1347     0869  3420               	retlw	32	;' '
  1348     086A  3466               	retlw	102	;'f'
  1349     086B  346F               	retlw	111	;'o'
  1350     086C  3472               	retlw	114	;'r'
  1351     086D  342E               	retlw	46	;'.'
  1352     086E  342E               	retlw	46	;'.'
  1353     086F  342E               	retlw	46	;'.'
  1354     0870  3400               	retlw	0
  1355     0871                     STR_40:
  1356     0871  3420               	retlw	32	;' '
  1357     0872  3420               	retlw	32	;' '
  1358     0873  3420               	retlw	32	;' '
  1359     0874  3420               	retlw	32	;' '
  1360     0875  3420               	retlw	32	;' '
  1361     0876  3420               	retlw	32	;' '
  1362     0877  3420               	retlw	32	;' '
  1363     0878  3420               	retlw	32	;' '
  1364     0879  3420               	retlw	32	;' '
  1365     087A  3420               	retlw	32	;' '
  1366     087B  3400               	retlw	0
  1367     087C                     STR_20:
  1368     087C  3443               	retlw	67	;'C'
  1369     087D  346C               	retlw	108	;'l'
  1370     087E  3465               	retlw	101	;'e'
  1371     087F  3461               	retlw	97	;'a'
  1372     0880  3472               	retlw	114	;'r'
  1373     0881  3420               	retlw	32	;' '
  1374     0882  344C               	retlw	76	;'L'
  1375     0883  346F               	retlw	111	;'o'
  1376     0884  3467               	retlw	103	;'g'
  1377     0885  3400               	retlw	0
  1378     0886                     STR_22:
  1379     0886  3453               	retlw	83	;'S'
  1380     0887  3465               	retlw	101	;'e'
  1381     0888  3474               	retlw	116	;'t'
  1382     0889  3420               	retlw	32	;' '
  1383     088A  3454               	retlw	84	;'T'
  1384     088B  3469               	retlw	105	;'i'
  1385     088C  346D               	retlw	109	;'m'
  1386     088D  3465               	retlw	101	;'e'
  1387     088E  3400               	retlw	0
  1388     088F                     STR_19:
  1389     088F  3456               	retlw	86	;'V'
  1390     0890  3469               	retlw	105	;'i'
  1391     0891  3465               	retlw	101	;'e'
  1392     0892  3477               	retlw	119	;'w'
  1393     0893  3420               	retlw	32	;' '
  1394     0894  344C               	retlw	76	;'L'
  1395     0895  346F               	retlw	111	;'o'
  1396     0896  3467               	retlw	103	;'g'
  1397     0897  3400               	retlw	0
  1398     0898                     STR_36:
  1399     0898  344C               	retlw	76	;'L'
  1400     0899  346F               	retlw	111	;'o'
  1401     089A  3467               	retlw	103	;'g'
  1402     089B  3473               	retlw	115	;'s'
  1403     089C  3420               	retlw	32	;' '
  1404     089D  343A               	retlw	58	;':'
  1405     089E  3400               	retlw	0
  1406     089F                     STR_51:
  1407     089F  3466               	retlw	102	;'f'
  1408     08A0  3461               	retlw	97	;'a'
  1409     08A1  3469               	retlw	105	;'i'
  1410     08A2  346C               	retlw	108	;'l'
  1411     08A3  3465               	retlw	101	;'e'
  1412     08A4  3464               	retlw	100	;'d'
  1413     08A5  3400               	retlw	0
  1414     08A6                     STR_8:
  1415     08A6  3431               	retlw	49	;'1'
  1416     08A7  3430               	retlw	48	;'0'
  1417     08A8  3431               	retlw	49	;'1'
  1418     08A9  3430               	retlw	48	;'0'
  1419     08AA  3400               	retlw	0
  1420     08AB                     STR_28:
  1421     08AB  3473               	retlw	115	;'s'
  1422     08AC  3465               	retlw	101	;'e'
  1423     08AD  3463               	retlw	99	;'c'
  1424     08AE  3400               	retlw	0
  1425     08AF                     STR_9:
  1426     08AF  3443               	retlw	67	;'C'
  1427     08B0  3420               	retlw	32	;' '
  1428     08B1  3400               	retlw	0
  1429     08B2                     STR_3:
  1430     08B2  3447               	retlw	71	;'G'
  1431     08B3  3431               	retlw	49	;'1'
  1432     08B4  3400               	retlw	0
  1433     08B5                     STR_4:
  1434     08B5  3447               	retlw	71	;'G'
  1435     08B6  3432               	retlw	50	;'2'
  1436     08B7  3400               	retlw	0
  1437     08B8                     STR_5:
  1438     08B8  3447               	retlw	71	;'G'
  1439     08B9  3433               	retlw	51	;'3'
  1440     08BA  3400               	retlw	0
  1441     08BB                     STR_6:
  1442     08BB  3447               	retlw	71	;'G'
  1443     08BC  3434               	retlw	52	;'4'
  1444     08BD  3400               	retlw	0
  1445     08BE                     STR_17:
  1446     08BE  3443               	retlw	67	;'C'
  1447     08BF  344C               	retlw	76	;'L'
  1448     08C0  3400               	retlw	0
  1449     08C1                     STR_13:
  1450     08C1  3444               	retlw	68	;'D'
  1451     08C2  344C               	retlw	76	;'L'
  1452     08C3  3400               	retlw	0
  1453     08C4                     STR_11:
  1454     08C4  3456               	retlw	86	;'V'
  1455     08C5  344C               	retlw	76	;'L'
  1456     08C6  3400               	retlw	0
  1457     08C7                     STR_1:
  1458     08C7  3447               	retlw	71	;'G'
  1459     08C8  344E               	retlw	78	;'N'
  1460     08C9  3400               	retlw	0
  1461     08CA                     STR_18:
  1462     08CA  3443               	retlw	67	;'C'
  1463     08CB  3450               	retlw	80	;'P'
  1464     08CC  3400               	retlw	0
  1465     08CD                     STR_2:
  1466     08CD  3447               	retlw	71	;'G'
  1467     08CE  3452               	retlw	82	;'R'
  1468     08CF  3400               	retlw	0
  1469     08D0                     STR_15:
  1470     08D0  3453               	retlw	83	;'S'
  1471     08D1  3454               	retlw	84	;'T'
  1472     08D2  3400               	retlw	0
  1473     0879                     
  1474                           	psect	cinit
  1475     000F                     start_initialization:	
  1476                           ; #config settings
  1477                           
  1478     000F                     __initialization:
  1479                           
  1480                           ; Initialize objects allocated to BANK1
  1481     000F  1383               	bcf	3,7	;select IRP bank0
  1482     0010  30B9               	movlw	low (__pdataBANK1+25)
  1483     0011  00FD               	movwf	btemp+-1
  1484     0012  3011               	movlw	high __pidataBANK1
  1485     0013  00FE               	movwf	btemp
  1486     0014  3087               	movlw	low __pidataBANK1
  1487     0015  00FF               	movwf	btemp+1
  1488     0016  30A0               	movlw	low __pdataBANK1
  1489     0017  0084               	movwf	4
  1490     0018  160A  118A  214E  120A  118A  	fcall	init_ram0
  1491                           
  1492                           ; Initialize objects allocated to BANK0
  1493     001D  3067               	movlw	low (__pdataBANK0+5)
  1494     001E  00FD               	movwf	btemp+-1
  1495     001F  3010               	movlw	high __pidataBANK0
  1496     0020  00FE               	movwf	btemp
  1497     0021  30A2               	movlw	low __pidataBANK0
  1498     0022  00FF               	movwf	btemp+1
  1499     0023  3062               	movlw	low __pdataBANK0
  1500     0024  0084               	movwf	4
  1501     0025  160A  118A  214E  120A  118A  	fcall	init_ram0
  1502                           
  1503                           ; Initialize objects allocated to COMMON
  1504     002A  120A  118A  26FF  120A  118A  	fcall	__pidataCOMMON	;fetch initializer
  1505     002F  00FB               	movwf	__pdataCOMMON& (0+127)
  1506                           
  1507                           ; Clear objects allocated to BANK1
  1508     0030  30B9               	movlw	low __pbssBANK1
  1509     0031  0084               	movwf	4
  1510     0032  30CC               	movlw	low (__pbssBANK1+19)
  1511     0033  160A  118A  20B4  120A  118A  	fcall	clear_ram0
  1512                           
  1513                           ; Clear objects allocated to BANK0
  1514     0038  3020               	movlw	low __pbssBANK0
  1515     0039  0084               	movwf	4
  1516     003A  3049               	movlw	low (__pbssBANK0+41)
  1517     003B  160A  118A  20B4  120A  118A  	fcall	clear_ram0
  1518                           
  1519                           ; Clear objects allocated to COMMON
  1520     0040  01FA               	clrf	__pbssCOMMON& (0+127)
  1521     0041                     end_of_initialization:	
  1522                           ;End of C runtime variable initialization code
  1523                           
  1524     0041                     __end_of__initialization:
  1525     0041  0183               	clrf	3
  1526     0042  120A  118A  2845   	ljmp	_main	;jump to C main() function
  1527                           
  1528                           	psect	bssCOMMON
  1529     007A                     __pbssCOMMON:
  1530     007A                     read_digital_keypad@long_press_detected:
  1531     007A                     	ds	1
  1532                           
  1533                           	psect	dataCOMMON
  1534     007B                     __pdataCOMMON:
  1535     007B                     read_digital_keypad@key_state:
  1536     007B                     	ds	1
  1537                           
  1538                           	psect	bssBANK0
  1539     0020                     __pbssBANK0:
  1540     0020                     set_time@new_time:
  1541     0020                     	ds	6
  1542     0026                     _clock_reg:
  1543     0026                     	ds	3
  1544     0029                     isr@count:
  1545     0029                     	ds	2
  1546     002B                     password_change@re_pass_pos:
  1547     002B                     	ds	2
  1548     002D                     password_change@pass_pos:
  1549     002D                     	ds	2
  1550     002F                     set_time@blink_pos:
  1551     002F                     	ds	2
  1552     0031                     read_digital_keypad@press_duration:
  1553     0031                     	ds	2
  1554     0033                     password_change@stage:
  1555     0033                     	ds	1
  1556     0034                     password_change@pwd_changed:
  1557     0034                     	ds	1
  1558     0035                     set_time@t_done:
  1559     0035                     	ds	1
  1560     0036                     set_time@blink:
  1561     0036                     	ds	1
  1562     0037                     set_time@wait:
  1563     0037                     	ds	1
  1564     0038                     view_records@record_number:
  1565     0038                     	ds	1
  1566     0039                     display_menu@menu_pos:
  1567     0039                     	ds	1
  1568     003A                     login@attempts_left:
  1569     003A                     	ds	1
  1570     003B                     login@i:
  1571     003B                     	ds	1
  1572     003C                     _sec:
  1573     003C                     	ds	1
  1574     003D                     _return_time:
  1575     003D                     	ds	1
  1576     003E                     _time:
  1577     003E                     	ds	7
  1578     0045                     password_change@usr_pwd:
  1579     0045                     	ds	4
  1580                           
  1581                           	psect	dataBANK0
  1582     0062                     __pdataBANK0:
  1583     0062                     _record_count:
  1584     0062                     	ds	2
  1585     0064                     _pos:
  1586     0064                     	ds	2
  1587     0066                     store_records_EEPROM@addr:
  1588     0066                     	ds	1
  1589                           
  1590                           	psect	bssBANK1
  1591     00B9                     __pbssBANK1:
  1592     00B9                     _records:
  1593     00B9                     	ds	11
  1594     00C4                     password_change@re_usr_pwd:
  1595     00C4                     	ds	4
  1596     00C8                     login@usr_pwd:
  1597     00C8                     	ds	4
  1598                           
  1599                           	psect	dataBANK1
  1600     00A0                     __pdataBANK1:
  1601     00A0                     _gear:
  1602     00A0                     	ds	12
  1603     00AC                     _menu:
  1604     00AC                     	ds	10
  1605     00B6                     main@F1249:
  1606     00B6                     	ds	3
  1607                           
  1608                           	psect	inittext
  1609     114A                     init_fetch0:	
  1610                           ;	Called with low address in FSR and high address in W
  1611                           
  1612     114A  087E               	movf	btemp,w
  1613     114B  008A               	movwf	10
  1614     114C  087F               	movf	btemp+1,w
  1615     114D  0082               	movwf	2
  1616     114E                     init_ram0:	
  1617                           ;Called with:
  1618                           ;	high address of idata address in btemp 
  1619                           ;	low address of idata address in btemp+1 
  1620                           ;	low address of data in FSR
  1621                           ;	high address + 1 of data in btemp-1
  1622                           
  1623     114E  160A  118A  214A  160A  118A  	fcall	init_fetch0
  1624     1153  0080               	movwf	0
  1625     1154  0A84               	incf	4,f
  1626     1155  0804               	movf	4,w
  1627     1156  067D               	xorwf	btemp+-1,w
  1628     1157  1903               	btfsc	3,2
  1629     1158  3400               	retlw	0
  1630     1159  0AFF               	incf	btemp+1,f
  1631     115A  1903               	btfsc	3,2
  1632     115B  0AFE               	incf	btemp,f
  1633     115C  294E               	goto	init_ram0
  1634                           
  1635                           	psect	clrtext
  1636     10B4                     clear_ram0:	
  1637                           ;	Called with FSR containing the base address, and
  1638                           ;	W with the last address+1
  1639                           
  1640     10B4  0064               	clrwdt	;clear the watchdog before getting into this loop
  1641     10B5                     clrloop0:
  1642     10B5  0180               	clrf	0	;clear RAM location pointed to by FSR
  1643     10B6  0A84               	incf	4,f	;increment pointer
  1644     10B7  0604               	xorwf	4,w	;XOR with final address
  1645     10B8  1903               	btfsc	3,2	;have we reached the end yet?
  1646     10B9  3400               	retlw	0	;all done for this memory range, return
  1647     10BA  0604               	xorwf	4,w	;XOR again to restore value
  1648     10BB  28B5               	goto	clrloop0	;do the next byte
  1649                           
  1650                           	psect	cstackBANK1
  1651     00CC                     __pcstackBANK1:
  1652     00CC                     main@j:
  1653                           
  1654                           ; 2 bytes @ 0x0
  1655     00CC                     	ds	2
  1656     00CE                     main@menu_pos:
  1657                           
  1658                           ; 1 bytes @ 0x2
  1659     00CE                     	ds	1
  1660     00CF                     main@event:
  1661                           
  1662                           ; 3 bytes @ 0x3
  1663     00CF                     	ds	3
  1664     00D2                     main@gr:
  1665                           
  1666                           ; 1 bytes @ 0x6
  1667     00D2                     	ds	1
  1668     00D3                     main@reset_flag:
  1669                           
  1670                           ; 1 bytes @ 0x7
  1671     00D3                     	ds	1
  1672     00D4                     main@screen_flag:
  1673                           
  1674                           ; 1 bytes @ 0x8
  1675     00D4                     	ds	1
  1676     00D5                     main@speed:
  1677                           
  1678                           ; 1 bytes @ 0x9
  1679     00D5                     	ds	1
  1680     00D6                     main@key:
  1681                           
  1682                           ; 1 bytes @ 0xA
  1683     00D6                     	ds	1
  1684                           
  1685                           	psect	cstackCOMMON
  1686     0070                     __pcstackCOMMON:
  1687     0070                     ?_read_ds1307:
  1688     0070                     ?_i2c_start:	
  1689                           ; 1 bytes @ 0x0
  1690                           
  1691     0070                     ?_i2c_rep_start:	
  1692                           ; 1 bytes @ 0x0
  1693                           
  1694     0070                     ?_i2c_read:	
  1695                           ; 1 bytes @ 0x0
  1696                           
  1697     0070                     ?_i2c_stop:	
  1698                           ; 1 bytes @ 0x0
  1699                           
  1700     0070                     ?_init_timer2:	
  1701                           ; 1 bytes @ 0x0
  1702                           
  1703     0070                     ?_clear_screen:	
  1704                           ; 1 bytes @ 0x0
  1705                           
  1706     0070                     ?_clear_records:	
  1707                           ; 1 bytes @ 0x0
  1708                           
  1709     0070                     ?_download_records:	
  1710                           ; 1 bytes @ 0x0
  1711                           
  1712     0070                     ?_eeprom_read:	
  1713                           ; 1 bytes @ 0x0
  1714                           
  1715     0070                     ?_putchar:	
  1716                           ; 1 bytes @ 0x0
  1717                           
  1718     0070                     ?_init_ds1307:	
  1719                           ; 1 bytes @ 0x0
  1720                           
  1721     0070                     ?_init_display_controller:	
  1722                           ; 1 bytes @ 0x0
  1723                           
  1724     0070                     ?_init_clcd:	
  1725                           ; 1 bytes @ 0x0
  1726                           
  1727     0070                     ?_i2c_wait_for_idle:	
  1728                           ; 1 bytes @ 0x0
  1729                           
  1730     0070                     ?_init_digital_keypad:	
  1731                           ; 1 bytes @ 0x0
  1732                           
  1733     0070                     ?_read_digital_keypad:	
  1734                           ; 1 bytes @ 0x0
  1735                           
  1736     0070                     ?_init_adc:	
  1737                           ; 1 bytes @ 0x0
  1738                           
  1739     0070                     ?_init_config:	
  1740                           ; 1 bytes @ 0x0
  1741                           
  1742     0070                     ?_main:	
  1743                           ; 1 bytes @ 0x0
  1744                           
  1745     0070                     ?_get_time:	
  1746                           ; 1 bytes @ 0x0
  1747                           
  1748     0070                     ?_display_time:	
  1749                           ; 1 bytes @ 0x0
  1750                           
  1751     0070                     ?_store_records_EEPROM:	
  1752                           ; 1 bytes @ 0x0
  1753                           
  1754     0070                     ?_isr:	
  1755                           ; 1 bytes @ 0x0
  1756                           
  1757     0070                     ??_isr:	
  1758                           ; 1 bytes @ 0x0
  1759                           
  1760     0070                     ?_i2c_write:	
  1761                           ; 1 bytes @ 0x0
  1762                           
  1763                           
  1764                           ; 2 bytes @ 0x0
  1765     0070                     	ds	2
  1766     0072                     ??_i2c_start:
  1767     0072                     ??_i2c_write:	
  1768                           ; 1 bytes @ 0x2
  1769                           
  1770     0072                     ??_i2c_rep_start:	
  1771                           ; 1 bytes @ 0x2
  1772                           
  1773     0072                     ??_i2c_read:	
  1774                           ; 1 bytes @ 0x2
  1775                           
  1776     0072                     ??_i2c_stop:	
  1777                           ; 1 bytes @ 0x2
  1778                           
  1779     0072                     ??_init_timer2:	
  1780                           ; 1 bytes @ 0x2
  1781                           
  1782     0072                     ?_strcpy:	
  1783                           ; 1 bytes @ 0x2
  1784                           
  1785     0072                     ?_strncpy:	
  1786                           ; 1 bytes @ 0x2
  1787                           
  1788     0072                     ??_putchar:	
  1789                           ; 1 bytes @ 0x2
  1790                           
  1791     0072                     ?_clcd_write:	
  1792                           ; 1 bytes @ 0x2
  1793                           
  1794     0072                     ??_i2c_wait_for_idle:	
  1795                           ; 1 bytes @ 0x2
  1796                           
  1797     0072                     ??_init_digital_keypad:	
  1798                           ; 1 bytes @ 0x2
  1799                           
  1800     0072                     ??_read_digital_keypad:	
  1801                           ; 1 bytes @ 0x2
  1802                           
  1803     0072                     ??_init_adc:	
  1804                           ; 1 bytes @ 0x2
  1805                           
  1806     0072                     ?___bmul:	
  1807                           ; 1 bytes @ 0x2
  1808                           
  1809     0072                     ?_strncmp:	
  1810                           ; 1 bytes @ 0x2
  1811                           
  1812     0072                     ?_read_adc:	
  1813                           ; 2 bytes @ 0x2
  1814                           
  1815     0072                     ?___wmul:	
  1816                           ; 2 bytes @ 0x2
  1817                           
  1818     0072                     ?___awdiv:	
  1819                           ; 2 bytes @ 0x2
  1820                           
  1821     0072                     ?___awmod:	
  1822                           ; 2 bytes @ 0x2
  1823                           
  1824     0072                     ?___lwmod:	
  1825                           ; 2 bytes @ 0x2
  1826                           
  1827     0072                     ?___lldiv:	
  1828                           ; 2 bytes @ 0x2
  1829                           
  1830     0072                     clcd_write@mode:	
  1831                           ; 4 bytes @ 0x2
  1832                           
  1833     0072                     i2c_read@ack:	
  1834                           ; 1 bytes @ 0x2
  1835                           
  1836     0072                     i2c_write@data:	
  1837                           ; 1 bytes @ 0x2
  1838                           
  1839     0072                     putchar@data:	
  1840                           ; 1 bytes @ 0x2
  1841                           
  1842     0072                     ___bmul@multiplicand:	
  1843                           ; 1 bytes @ 0x2
  1844                           
  1845     0072                     strncmp@r:	
  1846                           ; 1 bytes @ 0x2
  1847                           
  1848     0072                     ___wmul@multiplier:	
  1849                           ; 1 bytes @ 0x2
  1850                           
  1851     0072                     ___awdiv@divisor:	
  1852                           ; 2 bytes @ 0x2
  1853                           
  1854     0072                     ___awmod@divisor:	
  1855                           ; 2 bytes @ 0x2
  1856                           
  1857     0072                     ___lwmod@divisor:	
  1858                           ; 2 bytes @ 0x2
  1859                           
  1860     0072                     strcpy@src:	
  1861                           ; 2 bytes @ 0x2
  1862                           
  1863     0072                     strncpy@s:	
  1864                           ; 2 bytes @ 0x2
  1865                           
  1866     0072                     ___lldiv@divisor:	
  1867                           ; 2 bytes @ 0x2
  1868                           
  1869                           
  1870                           ; 4 bytes @ 0x2
  1871     0072                     	ds	1
  1872     0073                     ?_write_ds1307:
  1873     0073                     ?_puts:	
  1874                           ; 1 bytes @ 0x3
  1875                           
  1876     0073                     ??_clcd_write:	
  1877                           ; 1 bytes @ 0x3
  1878                           
  1879     0073                     ?_eeprom_write:	
  1880                           ; 1 bytes @ 0x3
  1881                           
  1882     0073                     ??___bmul:	
  1883                           ; 1 bytes @ 0x3
  1884                           
  1885     0073                     write_ds1307@data:	
  1886                           ; 1 bytes @ 0x3
  1887                           
  1888     0073                     i2c_read@data:	
  1889                           ; 1 bytes @ 0x3
  1890                           
  1891     0073                     eeprom_write@data:	
  1892                           ; 1 bytes @ 0x3
  1893                           
  1894     0073                     ___bmul@product:	
  1895                           ; 1 bytes @ 0x3
  1896                           
  1897     0073                     puts@s:	
  1898                           ; 1 bytes @ 0x3
  1899                           
  1900     0073                     strncmp@n:	
  1901                           ; 2 bytes @ 0x3
  1902                           
  1903                           
  1904                           ; 2 bytes @ 0x3
  1905     0073                     	ds	1
  1906     0074                     ??_read_ds1307:
  1907     0074                     ??_write_ds1307:	
  1908                           ; 1 bytes @ 0x4
  1909                           
  1910     0074                     ??_strcpy:	
  1911                           ; 1 bytes @ 0x4
  1912                           
  1913     0074                     ??_eeprom_read:	
  1914                           ; 1 bytes @ 0x4
  1915                           
  1916     0074                     ??_read_adc:	
  1917                           ; 1 bytes @ 0x4
  1918                           
  1919     0074                     ??_eeprom_write:	
  1920                           ; 1 bytes @ 0x4
  1921                           
  1922     0074                     read_ds1307@addr:	
  1923                           ; 1 bytes @ 0x4
  1924                           
  1925     0074                     write_ds1307@addr:	
  1926                           ; 1 bytes @ 0x4
  1927                           
  1928     0074                     eeprom_read@addr:	
  1929                           ; 1 bytes @ 0x4
  1930                           
  1931     0074                     eeprom_write@addr:	
  1932                           ; 1 bytes @ 0x4
  1933                           
  1934     0074                     ___bmul@multiplier:	
  1935                           ; 1 bytes @ 0x4
  1936                           
  1937     0074                     read_adc@adc_reg_val:	
  1938                           ; 1 bytes @ 0x4
  1939                           
  1940     0074                     ___wmul@multiplicand:	
  1941                           ; 2 bytes @ 0x4
  1942                           
  1943     0074                     ___awdiv@dividend:	
  1944                           ; 2 bytes @ 0x4
  1945                           
  1946     0074                     ___awmod@dividend:	
  1947                           ; 2 bytes @ 0x4
  1948                           
  1949     0074                     ___lwmod@dividend:	
  1950                           ; 2 bytes @ 0x4
  1951                           
  1952     0074                     strncpy@n:	
  1953                           ; 2 bytes @ 0x4
  1954                           
  1955                           
  1956                           ; 2 bytes @ 0x4
  1957     0074                     	ds	1
  1958     0075                     ??_puts:
  1959     0075                     ?_eeprom_write_string:	
  1960                           ; 1 bytes @ 0x5
  1961                           
  1962     0075                     ??_strncmp:	
  1963                           ; 1 bytes @ 0x5
  1964                           
  1965     0075                     read_ds1307@data:	
  1966                           ; 1 bytes @ 0x5
  1967                           
  1968     0075                     clcd_write@byte:	
  1969                           ; 1 bytes @ 0x5
  1970                           
  1971     0075                     read_digital_keypad@short_key_press:	
  1972                           ; 1 bytes @ 0x5
  1973                           
  1974     0075                     eeprom_read@data:	
  1975                           ; 1 bytes @ 0x5
  1976                           
  1977     0075                     eeprom_write_string@data:	
  1978                           ; 1 bytes @ 0x5
  1979                           
  1980                           
  1981                           ; 2 bytes @ 0x5
  1982     0075                     	ds	1
  1983     0076                     ??_clear_screen:
  1984     0076                     ??_download_records:	
  1985                           ; 1 bytes @ 0x6
  1986                           
  1987     0076                     ??_strncpy:	
  1988                           ; 1 bytes @ 0x6
  1989                           
  1990     0076                     ??_init_ds1307:	
  1991                           ; 1 bytes @ 0x6
  1992                           
  1993     0076                     ??_init_display_controller:	
  1994                           ; 1 bytes @ 0x6
  1995                           
  1996     0076                     ?_clcd_print:	
  1997                           ; 1 bytes @ 0x6
  1998                           
  1999     0076                     ??_get_time:	
  2000                           ; 1 bytes @ 0x6
  2001                           
  2002     0076                     ??___wmul:	
  2003                           ; 1 bytes @ 0x6
  2004                           
  2005     0076                     ??___awdiv:	
  2006                           ; 1 bytes @ 0x6
  2007                           
  2008     0076                     ??___awmod:	
  2009                           ; 1 bytes @ 0x6
  2010                           
  2011     0076                     ??___lwmod:	
  2012                           ; 1 bytes @ 0x6
  2013                           
  2014     0076                     ?___lwdiv:	
  2015                           ; 1 bytes @ 0x6
  2016                           
  2017     0076                     init_ds1307@dummy:	
  2018                           ; 2 bytes @ 0x6
  2019                           
  2020     0076                     read_digital_keypad@mode:	
  2021                           ; 1 bytes @ 0x6
  2022                           
  2023     0076                     ___awdiv@counter:	
  2024                           ; 1 bytes @ 0x6
  2025                           
  2026     0076                     ___awmod@counter:	
  2027                           ; 1 bytes @ 0x6
  2028                           
  2029     0076                     ___lwmod@counter:	
  2030                           ; 1 bytes @ 0x6
  2031                           
  2032     0076                     strcpy@d:	
  2033                           ; 1 bytes @ 0x6
  2034                           
  2035     0076                     clcd_print@str:	
  2036                           ; 1 bytes @ 0x6
  2037                           
  2038     0076                     ___wmul@product:	
  2039                           ; 2 bytes @ 0x6
  2040                           
  2041     0076                     ___lwdiv@divisor:	
  2042                           ; 2 bytes @ 0x6
  2043                           
  2044     0076                     ___lldiv@dividend:	
  2045                           ; 2 bytes @ 0x6
  2046                           
  2047                           
  2048                           ; 4 bytes @ 0x6
  2049     0076                     	ds	1
  2050     0077                     ??_eeprom_write_string:
  2051     0077                     read_digital_keypad@key:	
  2052                           ; 1 bytes @ 0x7
  2053                           
  2054     0077                     eeprom_write_string@addr:	
  2055                           ; 1 bytes @ 0x7
  2056                           
  2057     0077                     ___awdiv@sign:	
  2058                           ; 1 bytes @ 0x7
  2059                           
  2060     0077                     ___awmod@sign:	
  2061                           ; 1 bytes @ 0x7
  2062                           
  2063     0077                     strcpy@dest:	
  2064                           ; 1 bytes @ 0x7
  2065                           
  2066     0077                     strncmp@l:	
  2067                           ; 1 bytes @ 0x7
  2068                           
  2069                           
  2070                           ; 1 bytes @ 0x7
  2071     0077                     	ds	1
  2072     0078                     ??_init_clcd:
  2073     0078                     ??_store_records_EEPROM:	
  2074                           ; 1 bytes @ 0x8
  2075                           
  2076     0078                     clcd_print@addr:	
  2077                           ; 1 bytes @ 0x8
  2078                           
  2079     0078                     strncpy@d:	
  2080                           ; 1 bytes @ 0x8
  2081                           
  2082     0078                     ___awdiv@quotient:	
  2083                           ; 1 bytes @ 0x8
  2084                           
  2085     0078                     ___lwdiv@dividend:	
  2086                           ; 2 bytes @ 0x8
  2087                           
  2088                           
  2089                           ; 2 bytes @ 0x8
  2090     0078                     	ds	1
  2091     0079                     ??_clear_records:
  2092     0079                     ??_clcd_print:	
  2093                           ; 1 bytes @ 0x9
  2094                           
  2095     0079                     clear_records@reset_flag:	
  2096                           ; 1 bytes @ 0x9
  2097                           
  2098     0079                     strncpy@cp:	
  2099                           ; 1 bytes @ 0x9
  2100                           
  2101                           
  2102                           ; 1 bytes @ 0x9
  2103     0079                     	ds	1
  2104     007A                     ??_clcd_putch:
  2105     007A                     ??_init_config:	
  2106                           ; 1 bytes @ 0xA
  2107                           
  2108     007A                     ??_display_time:	
  2109                           ; 1 bytes @ 0xA
  2110                           
  2111     007A                     ??___lwdiv:	
  2112                           ; 1 bytes @ 0xA
  2113                           
  2114                           
  2115                           	psect	cstackBANK0
  2116     0049                     __pcstackBANK0:	
  2117                           ; 1 bytes @ 0xA
  2118                           
  2119     0049                     ?_record_event:
  2120     0049                     ?_clcd_putch:	
  2121                           ; 1 bytes @ 0x0
  2122                           
  2123     0049                     ??___lldiv:	
  2124                           ; 1 bytes @ 0x0
  2125                           
  2126     0049                     clcd_putch@addr:	
  2127                           ; 1 bytes @ 0x0
  2128                           
  2129     0049                     ___lwdiv@counter:	
  2130                           ; 1 bytes @ 0x0
  2131                           
  2132     0049                     record_event@event:	
  2133                           ; 1 bytes @ 0x0
  2134                           
  2135     0049                     download_records@records:	
  2136                           ; 2 bytes @ 0x0
  2137                           
  2138                           
  2139                           ; 11 bytes @ 0x0
  2140     0049                     	ds	1
  2141     004A                     clcd_putch@data:
  2142     004A                     ___lwdiv@quotient:	
  2143                           ; 1 bytes @ 0x1
  2144                           
  2145     004A                     ___lldiv@quotient:	
  2146                           ; 2 bytes @ 0x1
  2147                           
  2148                           
  2149                           ; 4 bytes @ 0x1
  2150     004A                     	ds	1
  2151     004B                     ?_display_dashboard:
  2152     004B                     ?_login:	
  2153                           ; 1 bytes @ 0x2
  2154                           
  2155     004B                     ?_display_menu:	
  2156                           ; 1 bytes @ 0x2
  2157                           
  2158     004B                     ?_view_records:	
  2159                           ; 1 bytes @ 0x2
  2160                           
  2161     004B                     ?_password_change:	
  2162                           ; 1 bytes @ 0x2
  2163                           
  2164     004B                     display_dashboard@speed:	
  2165                           ; 1 bytes @ 0x2
  2166                           
  2167     004B                     record_event@speed:	
  2168                           ; 1 bytes @ 0x2
  2169                           
  2170     004B                     login@reset_flag:	
  2171                           ; 1 bytes @ 0x2
  2172                           
  2173     004B                     display_menu@reset_flag:	
  2174                           ; 1 bytes @ 0x2
  2175                           
  2176     004B                     view_records@reset_flag:	
  2177                           ; 1 bytes @ 0x2
  2178                           
  2179     004B                     password_change@reset_flag:	
  2180                           ; 1 bytes @ 0x2
  2181                           
  2182                           
  2183                           ; 1 bytes @ 0x2
  2184     004B                     	ds	1
  2185     004C                     ??_record_event:
  2186     004C                     ??_display_dashboard:	
  2187                           ; 1 bytes @ 0x3
  2188                           
  2189     004C                     ??_login:	
  2190                           ; 1 bytes @ 0x3
  2191                           
  2192     004C                     ??_display_menu:	
  2193                           ; 1 bytes @ 0x3
  2194                           
  2195     004C                     ??_view_records:	
  2196                           ; 1 bytes @ 0x3
  2197                           
  2198     004C                     ?_set_time:	
  2199                           ; 1 bytes @ 0x3
  2200                           
  2201     004C                     ??_password_change:	
  2202                           ; 1 bytes @ 0x3
  2203                           
  2204     004C                     set_time@reset_flag:	
  2205                           ; 1 bytes @ 0x3
  2206                           
  2207                           
  2208                           ; 1 bytes @ 0x3
  2209     004C                     	ds	1
  2210     004D                     ??_set_time:
  2211                           
  2212                           ; 1 bytes @ 0x4
  2213     004D                     	ds	1
  2214     004E                     display_dashboard@event:
  2215     004E                     display_menu@key:	
  2216                           ; 1 bytes @ 0x5
  2217                           
  2218     004E                     ___lldiv@counter:	
  2219                           ; 1 bytes @ 0x5
  2220                           
  2221     004E                     view_records@records:	
  2222                           ; 1 bytes @ 0x5
  2223                           
  2224                           
  2225                           ; 11 bytes @ 0x5
  2226     004E                     	ds	1
  2227     004F                     ?_init_uart:
  2228     004F                     ?_init_i2c:	
  2229                           ; 1 bytes @ 0x6
  2230                           
  2231     004F                     password_change@key:	
  2232                           ; 1 bytes @ 0x6
  2233                           
  2234     004F                     init_i2c@baud:	
  2235                           ; 1 bytes @ 0x6
  2236                           
  2237     004F                     login@saved_pwd:	
  2238                           ; 4 bytes @ 0x6
  2239                           
  2240     004F                     init_uart@baud:	
  2241                           ; 4 bytes @ 0x6
  2242                           
  2243                           
  2244                           ; 4 bytes @ 0x6
  2245     004F                     	ds	1
  2246     0050                     set_time@key:
  2247                           
  2248                           ; 1 bytes @ 0x7
  2249     0050                     	ds	1
  2250     0051                     set_time@buffer:
  2251                           
  2252                           ; 1 bytes @ 0x8
  2253     0051                     	ds	2
  2254     0053                     ??_init_uart:
  2255     0053                     ??_init_i2c:	
  2256                           ; 1 bytes @ 0xA
  2257                           
  2258     0053                     login@key:	
  2259                           ; 1 bytes @ 0xA
  2260                           
  2261                           
  2262                           ; 1 bytes @ 0xA
  2263     0053                     	ds	1
  2264     0054                     download_records@addr:
  2265     0054                     login@j:	
  2266                           ; 1 bytes @ 0xB
  2267                           
  2268                           
  2269                           ; 2 bytes @ 0xB
  2270     0054                     	ds	1
  2271     0055                     download_records@position:
  2272                           
  2273                           ; 2 bytes @ 0xC
  2274     0055                     	ds	2
  2275     0057                     download_records@index:
  2276                           
  2277                           ; 2 bytes @ 0xE
  2278     0057                     	ds	2
  2279     0059                     view_records@record_pos:
  2280     0059                     download_records@i:	
  2281                           ; 2 bytes @ 0x10
  2282                           
  2283                           
  2284                           ; 2 bytes @ 0x10
  2285     0059                     	ds	2
  2286     005B                     view_records@addr:
  2287                           
  2288                           ; 1 bytes @ 0x12
  2289     005B                     	ds	1
  2290     005C                     view_records@i:
  2291                           
  2292                           ; 2 bytes @ 0x13
  2293     005C                     	ds	2
  2294     005E                     view_records@key:
  2295                           
  2296                           ; 1 bytes @ 0x15
  2297     005E                     	ds	1
  2298     005F                     ??_main:
  2299                           
  2300                           ; 1 bytes @ 0x16
  2301     005F                     	ds	3
  2302                           
  2303                           	psect	maintext
  2304     0045                     __pmaintext:	
  2305 ;;
  2306 ;;Main: autosize = 0, tempsize = 3, incstack = 0, save=0
  2307 ;;
  2308 ;; *************** function _main *****************
  2309 ;; Defined at:
  2310 ;;		line 42 in file "main.c"
  2311 ;; Parameters:    Size  Location     Type
  2312 ;;		None
  2313 ;; Auto vars:     Size  Location     Type
  2314 ;;  j               2    0[BANK1 ] int 
  2315 ;;  event           3    3[BANK1 ] unsigned char [3]
  2316 ;;  key             1   10[BANK1 ] unsigned char 
  2317 ;;  speed           1    9[BANK1 ] unsigned char 
  2318 ;;  screen_flag     1    8[BANK1 ] unsigned char 
  2319 ;;  reset_flag      1    7[BANK1 ] unsigned char 
  2320 ;;  gr              1    6[BANK1 ] unsigned char 
  2321 ;;  menu_pos        1    2[BANK1 ] unsigned char 
  2322 ;; Return value:  Size  Location     Type
  2323 ;;                  1    wreg      void 
  2324 ;; Registers used:
  2325 ;;		wreg, fsr0l, fsr0h, status,2, status,0, btemp+1, pclath, cstack
  2326 ;; Tracked objects:
  2327 ;;		On entry : B00/0
  2328 ;;		On exit  : 0/0
  2329 ;;		Unchanged: 0/0
  2330 ;; Data sizes:     COMMON   BANK0   BANK1   BANK3   BANK2
  2331 ;;      Params:         0       0       0       0       0
  2332 ;;      Locals:         0       0      11       0       0
  2333 ;;      Temps:          0       3       0       0       0
  2334 ;;      Totals:         0       3      11       0       0
  2335 ;;Total ram usage:       14 bytes
  2336 ;; Hardware stack levels required when called: 8
  2337 ;; This function calls:
  2338 ;;		___lwdiv
  2339 ;;		_clcd_print
  2340 ;;		_clcd_write
  2341 ;;		_clear_records
  2342 ;;		_clear_screen
  2343 ;;		_display_dashboard
  2344 ;;		_display_menu
  2345 ;;		_download_records
  2346 ;;		_eeprom_write_string
  2347 ;;		_init_config
  2348 ;;		_login
  2349 ;;		_password_change
  2350 ;;		_read_adc
  2351 ;;		_read_digital_keypad
  2352 ;;		_record_event
  2353 ;;		_set_time
  2354 ;;		_strcpy
  2355 ;;		_view_records
  2356 ;; This function is called by:
  2357 ;;		Startup code after reset
  2358 ;; This function uses a non-reentrant model
  2359 ;;
  2360                           
  2361     0045                     _main:	
  2362                           ;psect for function _main
  2363                           
  2364     0045                     l5195:	
  2365                           ;incstack = 0
  2366                           ; Regs used in _main: [wreg-fsr0h+status,2+status,0+btemp+1+pclath+cstack]
  2367                           
  2368                           
  2369                           ;main.c: 43:         if (speed > 99) {
  2370     0045  160A  118A  246A  120A  118A  	fcall	_init_config
  2371     004A                     l5197:
  2372                           
  2373                           ;main.c: 44:             speed = 99;
  2374     004A  1683               	bsf	3,5	;RP0=1, select bank1
  2375     004B  1303               	bcf	3,6	;RP1=0, select bank1
  2376     004C  0836               	movf	main@F1249^(0+128),w
  2377     004D  00CF               	movwf	main@event^(0+128)
  2378     004E  0837               	movf	(main@F1249+1)^(0+128),w
  2379     004F  00D0               	movwf	(main@event+1)^(0+128)
  2380     0050  0838               	movf	(main@F1249+2)^(0+128),w
  2381     0051  00D1               	movwf	(main@event+2)^(0+128)
  2382     0052                     l5199:
  2383     0052                     l5201:
  2384     0052  01D2               	clrf	main@gr^(0+128)
  2385     0053                     l5203:
  2386                           
  2387                           ;main.c: 46: 
  2388     0053  01D4               	clrf	main@screen_flag^(0+128)
  2389     0054                     l5205:
  2390                           
  2391                           ;main.c: 47:         key = read_digital_keypad(1);
  2392     0054  30CF               	movlw	(low (main@event| 0))& (0+255)
  2393     0055  1283               	bcf	3,5	;RP0=0, select bank0
  2394     0056  1303               	bcf	3,6	;RP1=0, select bank0
  2395     0057  00C9               	movwf	record_event@event
  2396     0058  3000               	movlw	0
  2397     0059  00CA               	movwf	record_event@event+1
  2398     005A  01CB               	clrf	record_event@speed
  2399     005B  160A  118A  2685  120A  118A  	fcall	_record_event
  2400     0060                     l5207:
  2401                           
  2402                           ;main.c: 48: 
  2403     0060  30A6               	movlw	low (STR_8| (0+32768))
  2404     0061  00F5               	movwf	eeprom_write_string@data
  2405     0062  3088               	movlw	high (STR_8| (0+32768))
  2406     0063  00F6               	movwf	eeprom_write_string@data+1
  2407     0064  3000               	movlw	0
  2408     0065  160A  118A  22CB  120A  118A  	fcall	_eeprom_write_string
  2409     006A                     l5209:
  2410                           
  2411                           ;main.c: 53:         } else if (key == 0x3D && gr < 6) {
  2412     006A  300A               	movlw	10
  2413     006B  00F6               	movwf	___lwdiv@divisor
  2414     006C  3000               	movlw	0
  2415     006D  00F7               	movwf	___lwdiv@divisor+1
  2416     006E  160A  118A  2125  120A  118A  	fcall	_read_adc
  2417     0073  0873               	movf	?_read_adc+1,w
  2418     0074  00F9               	movwf	___lwdiv@dividend+1
  2419     0075  0872               	movf	?_read_adc,w
  2420     0076  00F8               	movwf	___lwdiv@dividend
  2421     0077  160A  118A  24AD  120A  118A  	fcall	___lwdiv
  2422     007C  0876               	movf	?___lwdiv,w
  2423     007D  1683               	bsf	3,5	;RP0=1, select bank1
  2424     007E  1303               	bcf	3,6	;RP1=0, select bank1
  2425     007F  00D5               	movwf	main@speed^(0+128)
  2426     0080                     l5211:
  2427                           
  2428                           ;main.c: 54:             strcpy(event, gear[gr]);
  2429     0080  3064               	movlw	100
  2430     0081  0255               	subwf	main@speed^(0+128),w
  2431     0082  1C03               	skipc
  2432     0083  2885               	goto	u4881
  2433     0084  2886               	goto	u4880
  2434     0085                     u4881:
  2435     0085  2888               	goto	l5215
  2436     0086                     u4880:
  2437     0086                     l5213:
  2438                           
  2439                           ;main.c: 55:             record_event(event, speed);
  2440     0086  3063               	movlw	99
  2441     0087  00D5               	movwf	main@speed^(0+128)
  2442     0088                     l5215:
  2443                           
  2444                           ;main.c: 58:             gr--;
  2445     0088  3001               	movlw	1
  2446     0089  120A  158A  213F  120A  118A  	fcall	_read_digital_keypad
  2447     008E  1683               	bsf	3,5	;RP0=1, select bank1
  2448     008F  1303               	bcf	3,6	;RP1=0, select bank1
  2449     0090  00D6               	movwf	main@key^(0+128)
  2450     0091                     l5217:
  2451                           
  2452                           ;main.c: 60:             record_event(event, speed);
  2453     0091  30F4               	movlw	244
  2454     0092  00CC               	movwf	main@j^(0+128)
  2455     0093  3001               	movlw	1
  2456     0094  00CD               	movwf	(main@j^(0+128)+1)
  2457     0095                     l5219:
  2458     0095  30FF               	movlw	255
  2459     0096  07CC               	addwf	main@j^(0+128),f
  2460     0097  1803               	skipnc
  2461     0098  0ACD               	incf	(main@j+1)^(0+128),f
  2462     0099  30FF               	movlw	255
  2463     009A  07CD               	addwf	(main@j+1)^(0+128),f
  2464     009B  0A4C               	incf	main@j^(0+128),w
  2465     009C  1D03               	skipz
  2466     009D  28A2               	goto	u4891
  2467     009E  0A4D               	incf	(main@j+1)^(0+128),w
  2468     009F  1D03               	btfss	3,2
  2469     00A0  28A2               	goto	u4891
  2470     00A1  28A3               	goto	u4890
  2471     00A2                     u4891:
  2472     00A2  2895               	goto	l5219
  2473     00A3                     u4890:
  2474     00A3                     l5221:
  2475                           
  2476                           ;main.c: 61:         } else if ((key == 0x37 || key == 0x2F) && screen_flag == 0) {
  2477     00A3  303E               	movlw	62
  2478     00A4  0656               	xorwf	main@key^(0+128),w
  2479     00A5  1D03               	btfss	3,2
  2480     00A6  28A8               	goto	u4901
  2481     00A7  28A9               	goto	u4900
  2482     00A8                     u4901:
  2483     00A8  28C5               	goto	l5225
  2484     00A9                     u4900:
  2485     00A9                     l5223:
  2486                           
  2487                           ;main.c: 62:             screen_flag = 1;
  2488     00A9  30AF               	movlw	low (STR_9| (0+32768))
  2489     00AA  00F2               	movwf	strcpy@src
  2490     00AB  3088               	movlw	high (STR_9| (0+32768))
  2491     00AC  00F3               	movwf	strcpy@src+1
  2492     00AD  30CF               	movlw	(low (main@event| 0))& (0+255)
  2493     00AE  160A  118A  21DC  120A  118A  	fcall	_strcpy
  2494                           
  2495                           ;main.c: 63:             clear_screen();
  2496     00B3  30CF               	movlw	(low (main@event| 0))& (0+255)
  2497     00B4  1283               	bcf	3,5	;RP0=0, select bank0
  2498     00B5  1303               	bcf	3,6	;RP1=0, select bank0
  2499     00B6  00C9               	movwf	record_event@event
  2500     00B7  3000               	movlw	0
  2501     00B8  00CA               	movwf	record_event@event+1
  2502     00B9  1683               	bsf	3,5	;RP0=1, select bank1
  2503     00BA  1303               	bcf	3,6	;RP1=0, select bank1
  2504     00BB  0855               	movf	main@speed^(0+128),w
  2505     00BC  1283               	bcf	3,5	;RP0=0, select bank0
  2506     00BD  1303               	bcf	3,6	;RP1=0, select bank0
  2507     00BE  00CB               	movwf	record_event@speed
  2508     00BF  160A  118A  2685  120A  118A  	fcall	_record_event
  2509                           
  2510                           ;main.c: 64:             clcd_print("Enter Password", (0x80 + 1));
  2511     00C4  2BEE               	goto	l5463
  2512     00C5                     l5225:
  2513     00C5  303D               	movlw	61
  2514     00C6  0656               	xorwf	main@key^(0+128),w
  2515     00C7  1D03               	btfss	3,2
  2516     00C8  28CA               	goto	u4911
  2517     00C9  28CB               	goto	u4910
  2518     00CA                     u4911:
  2519     00CA  28FD               	goto	l5233
  2520     00CB                     u4910:
  2521     00CB                     l5227:
  2522     00CB  3006               	movlw	6
  2523     00CC  0252               	subwf	main@gr^(0+128),w
  2524     00CD  1803               	skipnc
  2525     00CE  28D0               	goto	u4921
  2526     00CF  28D1               	goto	u4920
  2527     00D0                     u4921:
  2528     00D0  28FD               	goto	l5233
  2529     00D1                     u4920:
  2530     00D1                     l5229:
  2531                           
  2532                           ;main.c: 65:             clcd_write((0xC0 + 5), 0);
  2533     00D1  0852               	movf	main@gr^(0+128),w
  2534     00D2  1283               	bcf	3,5	;RP0=0, select bank0
  2535     00D3  1303               	bcf	3,6	;RP1=0, select bank0
  2536     00D4  00DF               	movwf	??_main
  2537     00D5  075F               	addwf	??_main,w
  2538     00D6  3EA0               	addlw	(low (_gear| 0))& (0+255)
  2539     00D7  0084               	movwf	4
  2540     00D8  1383               	bcf	3,7	;select IRP bank1
  2541     00D9  0800               	movf	0,w
  2542     00DA  00F2               	movwf	strcpy@src
  2543     00DB  0A84               	incf	4,f
  2544     00DC  0800               	movf	0,w
  2545     00DD  0384               	decf	4,f
  2546     00DE  00F3               	movwf	strcpy@src+1
  2547     00DF  30CF               	movlw	(low (main@event| 0))& (0+255)
  2548     00E0  160A  118A  21DC  120A  118A  	fcall	_strcpy
  2549                           
  2550                           ;main.c: 66:             clcd_write(0x0F, 0);
  2551     00E5  30CF               	movlw	(low (main@event| 0))& (0+255)
  2552     00E6  1283               	bcf	3,5	;RP0=0, select bank0
  2553     00E7  1303               	bcf	3,6	;RP1=0, select bank0
  2554     00E8  00C9               	movwf	record_event@event
  2555     00E9  3000               	movlw	0
  2556     00EA  00CA               	movwf	record_event@event+1
  2557     00EB  1683               	bsf	3,5	;RP0=1, select bank1
  2558     00EC  1303               	bcf	3,6	;RP1=0, select bank1
  2559     00ED  0855               	movf	main@speed^(0+128),w
  2560     00EE  1283               	bcf	3,5	;RP0=0, select bank0
  2561     00EF  1303               	bcf	3,6	;RP1=0, select bank0
  2562     00F0  00CB               	movwf	record_event@speed
  2563     00F1  160A  118A  2685  120A  118A  	fcall	_record_event
  2564     00F6                     l5231:
  2565                           
  2566                           ;main.c: 67:             _delay((unsigned long)((100)*(20000000/4000000.0)));
  2567     00F6  3001               	movlw	1
  2568     00F7  00FF               	movwf	btemp+1
  2569     00F8  087F               	movf	btemp+1,w
  2570     00F9  1683               	bsf	3,5	;RP0=1, select bank1
  2571     00FA  1303               	bcf	3,6	;RP1=0, select bank1
  2572     00FB  07D2               	addwf	main@gr^(0+128),f
  2573                           
  2574                           ;main.c: 68:             reset_flag = 0x02;
  2575     00FC  2BEE               	goto	l5463
  2576     00FD                     l5233:
  2577     00FD  303B               	movlw	59
  2578     00FE  0656               	xorwf	main@key^(0+128),w
  2579     00FF  1D03               	btfss	3,2
  2580     0100  2902               	goto	u4931
  2581     0101  2903               	goto	u4930
  2582     0102                     u4931:
  2583     0102  2930               	goto	l5243
  2584     0103                     u4930:
  2585     0103                     l5235:
  2586     0103  0852               	movf	main@gr^(0+128),w
  2587     0104  1903               	btfsc	3,2
  2588     0105  2907               	goto	u4941
  2589     0106  2908               	goto	u4940
  2590     0107                     u4941:
  2591     0107  2930               	goto	l5243
  2592     0108                     u4940:
  2593     0108                     l5237:
  2594                           
  2595                           ;main.c: 69:             TMR2ON = 1;
  2596     0108  3001               	movlw	1
  2597     0109  02D2               	subwf	main@gr^(0+128),f
  2598     010A                     l5239:
  2599                           
  2600                           ;main.c: 70:         } else if ((key == 0x80) && screen_flag == 4) {
  2601     010A  0852               	movf	main@gr^(0+128),w
  2602     010B  1283               	bcf	3,5	;RP0=0, select bank0
  2603     010C  1303               	bcf	3,6	;RP1=0, select bank0
  2604     010D  00DF               	movwf	??_main
  2605     010E  075F               	addwf	??_main,w
  2606     010F  3EA0               	addlw	(low (_gear| 0))& (0+255)
  2607     0110  0084               	movwf	4
  2608     0111  1383               	bcf	3,7	;select IRP bank1
  2609     0112  0800               	movf	0,w
  2610     0113  00F2               	movwf	strcpy@src
  2611     0114  0A84               	incf	4,f
  2612     0115  0800               	movf	0,w
  2613     0116  0384               	decf	4,f
  2614     0117  00F3               	movwf	strcpy@src+1
  2615     0118  30CF               	movlw	(low (main@event| 0))& (0+255)
  2616     0119  160A  118A  21DC  120A  118A  	fcall	_strcpy
  2617     011E                     l5241:
  2618                           
  2619                           ;main.c: 71:             switch (menu_pos) {
  2620     011E  30CF               	movlw	(low (main@event| 0))& (0+255)
  2621     011F  1283               	bcf	3,5	;RP0=0, select bank0
  2622     0120  1303               	bcf	3,6	;RP1=0, select bank0
  2623     0121  00C9               	movwf	record_event@event
  2624     0122  3000               	movlw	0
  2625     0123  00CA               	movwf	record_event@event+1
  2626     0124  1683               	bsf	3,5	;RP0=1, select bank1
  2627     0125  1303               	bcf	3,6	;RP1=0, select bank1
  2628     0126  0855               	movf	main@speed^(0+128),w
  2629     0127  1283               	bcf	3,5	;RP0=0, select bank0
  2630     0128  1303               	bcf	3,6	;RP1=0, select bank0
  2631     0129  00CB               	movwf	record_event@speed
  2632     012A  160A  118A  2685  120A  118A  	fcall	_record_event
  2633                           
  2634                           ;main.c: 72:                 case 0:
  2635     012F  2BEE               	goto	l5463
  2636     0130                     l5243:
  2637     0130  3037               	movlw	55
  2638     0131  0656               	xorwf	main@key^(0+128),w
  2639     0132  1903               	btfsc	3,2
  2640     0133  2935               	goto	u4951
  2641     0134  2936               	goto	u4950
  2642     0135                     u4951:
  2643     0135  293C               	goto	l5247
  2644     0136                     u4950:
  2645     0136                     l5245:
  2646     0136  302F               	movlw	47
  2647     0137  0656               	xorwf	main@key^(0+128),w
  2648     0138  1D03               	btfss	3,2
  2649     0139  293B               	goto	u4961
  2650     013A  293C               	goto	u4960
  2651     013B                     u4961:
  2652     013B  2970               	goto	l5265
  2653     013C                     u4960:
  2654     013C                     l5247:
  2655     013C  0854               	movf	main@screen_flag^(0+128),w
  2656     013D  1D03               	btfss	3,2
  2657     013E  2940               	goto	u4971
  2658     013F  2941               	goto	u4970
  2659     0140                     u4971:
  2660     0140  2970               	goto	l5265
  2661     0141                     u4970:
  2662     0141                     l5249:
  2663                           
  2664                           ;main.c: 73: 
  2665     0141  01D4               	clrf	main@screen_flag^(0+128)
  2666     0142  0AD4               	incf	main@screen_flag^(0+128),f
  2667     0143                     l5251:
  2668                           
  2669                           ;main.c: 74:                     screen_flag = 8;
  2670     0143  160A  118A  2114  120A  118A  	fcall	_clear_screen
  2671     0148                     l5253:
  2672                           
  2673                           ;main.c: 75:                     clear_screen();
  2674     0148  30EB               	movlw	low (STR_10| (0+32768))
  2675     0149  00F6               	movwf	clcd_print@str
  2676     014A  3087               	movlw	high (STR_10| (0+32768))
  2677     014B  00F7               	movwf	clcd_print@str+1
  2678     014C  3081               	movlw	129
  2679     014D  00F8               	movwf	clcd_print@addr
  2680     014E  160A  118A  22F8  120A  118A  	fcall	_clcd_print
  2681     0153                     l5255:
  2682                           
  2683                           ;main.c: 76:                     record_event("VL", speed);
  2684     0153  01F2               	clrf	clcd_write@mode
  2685     0154  30C5               	movlw	197
  2686     0155  160A  118A  23BB  120A  118A  	fcall	_clcd_write
  2687     015A                     l5257:
  2688                           
  2689                           ;main.c: 77:                     clcd_print("# TIME     E  SP", (0x80 + 0));
  2690     015A  01F2               	clrf	clcd_write@mode
  2691     015B  300F               	movlw	15
  2692     015C  160A  118A  23BB  120A  118A  	fcall	_clcd_write
  2693     0161                     l5259:
  2694                           
  2695                           ;main.c: 78:                     reset_flag = 0x08;
  2696     0161  30A5               	movlw	165
  2697     0162  1283               	bcf	3,5	;RP0=0, select bank0
  2698     0163  1303               	bcf	3,6	;RP1=0, select bank0
  2699     0164  00DF               	movwf	??_main
  2700     0165                     u5107:
  2701     0165  0BDF               	decfsz	??_main,f
  2702     0166  2965               	goto	u5107
  2703     0167  2968               	nop2
  2704     0168                     l5261:
  2705                           
  2706                           ;main.c: 79:                     break;
  2707     0168  3002               	movlw	2
  2708     0169  1683               	bsf	3,5	;RP0=1, select bank1
  2709     016A  1303               	bcf	3,6	;RP1=0, select bank1
  2710     016B  00D3               	movwf	main@reset_flag^(0+128)
  2711     016C                     l5263:
  2712                           
  2713                           ;main.c: 80:                 case 1:
  2714     016C  1283               	bcf	3,5	;RP0=0, select bank0
  2715     016D  1303               	bcf	3,6	;RP1=0, select bank0
  2716     016E  1512               	bsf	18,2	;volatile
  2717                           
  2718                           ;main.c: 81: 
  2719     016F  2BEE               	goto	l5463
  2720     0170                     l5265:
  2721     0170  3080               	movlw	128
  2722     0171  0656               	xorwf	main@key^(0+128),w
  2723     0172  1D03               	btfss	3,2
  2724     0173  2975               	goto	u4981
  2725     0174  2976               	goto	u4980
  2726     0175                     u4981:
  2727     0175  2A36               	goto	l5325
  2728     0176                     u4980:
  2729     0176                     l5267:
  2730     0176  3004               	movlw	4
  2731     0177  0654               	xorwf	main@screen_flag^(0+128),w
  2732     0178  1D03               	btfss	3,2
  2733     0179  297B               	goto	u4991
  2734     017A  297C               	goto	u4990
  2735     017B                     u4991:
  2736     017B  2A36               	goto	l5325
  2737     017C                     u4990:
  2738     017C  2A25               	goto	l5323
  2739     017D                     l5271:
  2740                           
  2741                           ;main.c: 85:                     break;
  2742     017D  3008               	movlw	8
  2743     017E  00D4               	movwf	main@screen_flag^(0+128)
  2744     017F                     l5273:
  2745                           
  2746                           ;main.c: 86:                 case 2:
  2747     017F  160A  118A  2114  120A  118A  	fcall	_clear_screen
  2748     0184                     l5275:
  2749                           
  2750                           ;main.c: 87: 
  2751     0184  30C4               	movlw	low (STR_11| (0+32768))
  2752     0185  1283               	bcf	3,5	;RP0=0, select bank0
  2753     0186  1303               	bcf	3,6	;RP1=0, select bank0
  2754     0187  00C9               	movwf	record_event@event
  2755     0188  3088               	movlw	high (STR_11| (0+32768))
  2756     0189  00CA               	movwf	record_event@event+1
  2757     018A  1683               	bsf	3,5	;RP0=1, select bank1
  2758     018B  1303               	bcf	3,6	;RP1=0, select bank1
  2759     018C  0855               	movf	main@speed^(0+128),w
  2760     018D  1283               	bcf	3,5	;RP0=0, select bank0
  2761     018E  1303               	bcf	3,6	;RP1=0, select bank0
  2762     018F  00CB               	movwf	record_event@speed
  2763     0190  160A  118A  2685  120A  118A  	fcall	_record_event
  2764     0195                     l5277:
  2765                           
  2766                           ;main.c: 88:                     screen_flag = 20;
  2767     0195  308C               	movlw	low (STR_12| (0+32768))
  2768     0196  00F6               	movwf	clcd_print@str
  2769     0197  3087               	movlw	high (STR_12| (0+32768))
  2770     0198  00F7               	movwf	clcd_print@str+1
  2771     0199  3080               	movlw	128
  2772     019A  00F8               	movwf	clcd_print@addr
  2773     019B  160A  118A  22F8  120A  118A  	fcall	_clcd_print
  2774     01A0                     l5279:
  2775                           
  2776                           ;main.c: 89:                     clear_screen();
  2777     01A0  3008               	movlw	8
  2778     01A1  1683               	bsf	3,5	;RP0=1, select bank1
  2779     01A2  1303               	bcf	3,6	;RP1=0, select bank1
  2780     01A3  00D3               	movwf	main@reset_flag^(0+128)
  2781                           
  2782                           ;main.c: 90:                     record_event("DL", speed);
  2783     01A4  2BEE               	goto	l5463
  2784     01A5                     l5281:
  2785                           
  2786                           ;main.c: 93:                     reset_flag = 0x05;
  2787     01A5  300A               	movlw	10
  2788     01A6  00D4               	movwf	main@screen_flag^(0+128)
  2789     01A7                     l5283:
  2790                           
  2791                           ;main.c: 94:                     break;
  2792     01A7  160A  118A  2114  120A  118A  	fcall	_clear_screen
  2793     01AC                     l5285:
  2794                           
  2795                           ;main.c: 95: 
  2796     01AC  3044               	movlw	68
  2797     01AD  1683               	bsf	3,5	;RP0=1, select bank1
  2798     01AE  1303               	bcf	3,6	;RP1=0, select bank1
  2799     01AF  00D3               	movwf	main@reset_flag^(0+128)
  2800                           
  2801                           ;main.c: 96:                 case 3:
  2802     01B0  2BEE               	goto	l5463
  2803     01B1                     l5287:
  2804                           
  2805                           ;main.c: 99:                     clear_screen();
  2806     01B1  3014               	movlw	20
  2807     01B2  00D4               	movwf	main@screen_flag^(0+128)
  2808     01B3                     l5289:
  2809                           
  2810                           ;main.c: 100:                     record_event("ST", speed);
  2811     01B3  160A  118A  2114  120A  118A  	fcall	_clear_screen
  2812     01B8                     l5291:
  2813                           
  2814                           ;main.c: 101:                     reset_flag = 0x30;
  2815     01B8  30C1               	movlw	low (STR_13| (0+32768))
  2816     01B9  1283               	bcf	3,5	;RP0=0, select bank0
  2817     01BA  1303               	bcf	3,6	;RP1=0, select bank0
  2818     01BB  00C9               	movwf	record_event@event
  2819     01BC  3088               	movlw	high (STR_13| (0+32768))
  2820     01BD  00CA               	movwf	record_event@event+1
  2821     01BE  1683               	bsf	3,5	;RP0=1, select bank1
  2822     01BF  1303               	bcf	3,6	;RP1=0, select bank1
  2823     01C0  0855               	movf	main@speed^(0+128),w
  2824     01C1  1283               	bcf	3,5	;RP0=0, select bank0
  2825     01C2  1303               	bcf	3,6	;RP1=0, select bank0
  2826     01C3  00CB               	movwf	record_event@speed
  2827     01C4  160A  118A  2685  120A  118A  	fcall	_record_event
  2828     01C9                     l5293:
  2829                           
  2830                           ;main.c: 102:                     break;
  2831     01C9  30BD               	movlw	low (STR_14| (0+32768))
  2832     01CA  00F6               	movwf	clcd_print@str
  2833     01CB  3087               	movlw	high (STR_14| (0+32768))
  2834     01CC  00F7               	movwf	clcd_print@str+1
  2835     01CD  3080               	movlw	128
  2836     01CE  00F8               	movwf	clcd_print@addr
  2837     01CF  160A  118A  22F8  120A  118A  	fcall	_clcd_print
  2838     01D4                     l5295:
  2839                           
  2840                           ;main.c: 103: 
  2841     01D4  3033               	movlw	51
  2842     01D5  1283               	bcf	3,5	;RP0=0, select bank0
  2843     01D6  1303               	bcf	3,6	;RP1=0, select bank0
  2844     01D7  00E1               	movwf	??_main+2
  2845     01D8  30BB               	movlw	187
  2846     01D9  00E0               	movwf	??_main+1
  2847     01DA  30DF               	movlw	223
  2848     01DB  00DF               	movwf	??_main
  2849     01DC                     u5117:
  2850     01DC  0BDF               	decfsz	??_main,f
  2851     01DD  29DC               	goto	u5117
  2852     01DE  0BE0               	decfsz	??_main+1,f
  2853     01DF  29DC               	goto	u5117
  2854     01E0  0BE1               	decfsz	??_main+2,f
  2855     01E1  29DC               	goto	u5117
  2856     01E2                     l5297:
  2857                           
  2858                           ;main.c: 104:                 case 4:
  2859     01E2  3005               	movlw	5
  2860     01E3  1683               	bsf	3,5	;RP0=1, select bank1
  2861     01E4  1303               	bcf	3,6	;RP1=0, select bank1
  2862     01E5  00D3               	movwf	main@reset_flag^(0+128)
  2863                           
  2864                           ;main.c: 105: 
  2865     01E6  2BEE               	goto	l5463
  2866     01E7                     l5299:
  2867                           
  2868                           ;main.c: 109:                     clcd_write((0xC0 + 5), 0);
  2869     01E7  3028               	movlw	40
  2870     01E8  00D4               	movwf	main@screen_flag^(0+128)
  2871     01E9                     l5301:
  2872                           
  2873                           ;main.c: 110:                     clcd_write(0x0F, 0);
  2874     01E9  160A  118A  2114  120A  118A  	fcall	_clear_screen
  2875     01EE                     l5303:
  2876                           
  2877                           ;main.c: 111:                     _delay((unsigned long)((100)*(20000000/4000000.0)));
  2878     01EE  30D0               	movlw	low (STR_15| (0+32768))
  2879     01EF  1283               	bcf	3,5	;RP0=0, select bank0
  2880     01F0  1303               	bcf	3,6	;RP1=0, select bank0
  2881     01F1  00C9               	movwf	record_event@event
  2882     01F2  3088               	movlw	high (STR_15| (0+32768))
  2883     01F3  00CA               	movwf	record_event@event+1
  2884     01F4  1683               	bsf	3,5	;RP0=1, select bank1
  2885     01F5  1303               	bcf	3,6	;RP1=0, select bank1
  2886     01F6  0855               	movf	main@speed^(0+128),w
  2887     01F7  1283               	bcf	3,5	;RP0=0, select bank0
  2888     01F8  1303               	bcf	3,6	;RP1=0, select bank0
  2889     01F9  00CB               	movwf	record_event@speed
  2890     01FA  160A  118A  2685  120A  118A  	fcall	_record_event
  2891     01FF                     l5305:
  2892                           
  2893                           ;main.c: 112:                     reset_flag = 0x02;
  2894     01FF  3030               	movlw	48
  2895     0200  1683               	bsf	3,5	;RP0=1, select bank1
  2896     0201  1303               	bcf	3,6	;RP1=0, select bank1
  2897     0202  00D3               	movwf	main@reset_flag^(0+128)
  2898                           
  2899                           ;main.c: 113:                     TMR2ON = 1;
  2900     0203  2BEE               	goto	l5463
  2901     0204                     l5307:
  2902                           
  2903                           ;main.c: 117: 
  2904     0204  3050               	movlw	80
  2905     0205  00D4               	movwf	main@screen_flag^(0+128)
  2906     0206                     l5309:
  2907                           
  2908                           ;main.c: 118:             screen_flag = 4;
  2909     0206  160A  118A  2114  120A  118A  	fcall	_clear_screen
  2910     020B                     l5311:
  2911                           
  2912                           ;main.c: 119: 
  2913     020B  30DC               	movlw	low (STR_16| (0+32768))
  2914     020C  00F6               	movwf	clcd_print@str
  2915     020D  3087               	movlw	high (STR_16| (0+32768))
  2916     020E  00F7               	movwf	clcd_print@str+1
  2917     020F  3080               	movlw	128
  2918     0210  00F8               	movwf	clcd_print@addr
  2919     0211  160A  118A  22F8  120A  118A  	fcall	_clcd_print
  2920     0216                     l5313:
  2921                           
  2922                           ;main.c: 120:             clear_screen();
  2923     0216  01F2               	clrf	clcd_write@mode
  2924     0217  30C5               	movlw	197
  2925     0218  160A  118A  23BB  120A  118A  	fcall	_clcd_write
  2926     021D                     l5315:
  2927                           
  2928                           ;main.c: 121:         }
  2929     021D  01F2               	clrf	clcd_write@mode
  2930     021E  300F               	movlw	15
  2931     021F  160A  118A  23BB  120A  118A  	fcall	_clcd_write
  2932     0224  2961               	goto	l5259
  2933     0225                     l5323:
  2934     0225  084E               	movf	main@menu_pos^(0+128),w
  2935                           
  2936                           ; Switch size 1, requested type "simple"
  2937                           ; Number of cases is 5, Range of values is 0 to 4
  2938                           ; switch strategies available:
  2939                           ; Name         Instructions Cycles
  2940                           ; simple_byte           16     9 (average)
  2941                           ; direct_byte           23     8 (fixed)
  2942                           ; jumptable            260     6 (fixed)
  2943                           ;	Chosen strategy is simple_byte
  2944     0226  3A00               	xorlw	0	; case 0
  2945     0227  1903               	skipnz
  2946     0228  297D               	goto	l5271
  2947     0229  3A01               	xorlw	1	; case 1
  2948     022A  1903               	skipnz
  2949     022B  29A5               	goto	l5281
  2950     022C  3A03               	xorlw	3	; case 2
  2951     022D  1903               	skipnz
  2952     022E  29B1               	goto	l5287
  2953     022F  3A01               	xorlw	1	; case 3
  2954     0230  1903               	skipnz
  2955     0231  29E7               	goto	l5299
  2956     0232  3A07               	xorlw	7	; case 4
  2957     0233  1903               	skipnz
  2958     0234  2A04               	goto	l5307
  2959     0235  2BEE               	goto	l5463
  2960     0236                     l5325:
  2961     0236  3080               	movlw	128
  2962     0237  0656               	xorwf	main@key^(0+128),w
  2963     0238  1D03               	btfss	3,2
  2964     0239  2A3B               	goto	u5001
  2965     023A  2A3C               	goto	u5000
  2966     023B                     u5001:
  2967     023B  2A4A               	goto	l5333
  2968     023C                     u5000:
  2969     023C                     l5327:
  2970     023C  3008               	movlw	8
  2971     023D  0654               	xorwf	main@screen_flag^(0+128),w
  2972     023E  1D03               	btfss	3,2
  2973     023F  2A41               	goto	u5011
  2974     0240  2A42               	goto	u5010
  2975     0241                     u5011:
  2976     0241  2A4A               	goto	l5333
  2977     0242                     u5010:
  2978     0242                     l5329:
  2979                           
  2980                           ;main.c: 129:         }
  2981     0242  3004               	movlw	4
  2982     0243  00D4               	movwf	main@screen_flag^(0+128)
  2983     0244                     l5331:
  2984                           
  2985                           ;main.c: 131: 
  2986     0244  160A  118A  2114  120A  118A  	fcall	_clear_screen
  2987                           
  2988                           ;main.c: 132:             screen_flag = 0;
  2989     0249  2BEE               	goto	l5463
  2990     024A                     l5333:
  2991     024A  3080               	movlw	128
  2992     024B  0656               	xorwf	main@key^(0+128),w
  2993     024C  1D03               	btfss	3,2
  2994     024D  2A4F               	goto	u5021
  2995     024E  2A50               	goto	u5020
  2996     024F                     u5021:
  2997     024F  2A6C               	goto	l5343
  2998     0250                     u5020:
  2999     0250                     l5335:
  3000     0250  3050               	movlw	80
  3001     0251  0654               	xorwf	main@screen_flag^(0+128),w
  3002     0252  1D03               	btfss	3,2
  3003     0253  2A55               	goto	u5031
  3004     0254  2A56               	goto	u5030
  3005     0255                     u5031:
  3006     0255  2A6C               	goto	l5343
  3007     0256                     u5030:
  3008     0256                     l5337:
  3009                           
  3010                           ;main.c: 135:         }
  3011     0256  3004               	movlw	4
  3012     0257  00D4               	movwf	main@screen_flag^(0+128)
  3013     0258                     l5339:
  3014                           
  3015                           ;main.c: 136: 
  3016     0258  01F2               	clrf	clcd_write@mode
  3017     0259  300C               	movlw	12
  3018     025A  160A  118A  23BB  120A  118A  	fcall	_clcd_write
  3019     025F                     l5341:
  3020                           
  3021                           ;main.c: 137: 
  3022     025F  30A5               	movlw	165
  3023     0260  1283               	bcf	3,5	;RP0=0, select bank0
  3024     0261  1303               	bcf	3,6	;RP1=0, select bank0
  3025     0262  00DF               	movwf	??_main
  3026     0263                     u5127:
  3027     0263  0BDF               	decfsz	??_main,f
  3028     0264  2A63               	goto	u5127
  3029     0265  2A66               	nop2
  3030                           
  3031                           ;main.c: 139:         switch (screen_flag) {
  3032     0266  160A  118A  2114  120A  118A  	fcall	_clear_screen
  3033                           
  3034                           ;main.c: 140:             case 0:
  3035     026B  2BEE               	goto	l5463
  3036     026C                     l5343:
  3037     026C  3090               	movlw	144
  3038     026D  0656               	xorwf	main@key^(0+128),w
  3039     026E  1D03               	btfss	3,2
  3040     026F  2A71               	goto	u5041
  3041     0270  2A72               	goto	u5040
  3042     0271                     u5041:
  3043     0271  2A7A               	goto	l242
  3044     0272                     u5040:
  3045     0272                     l5345:
  3046     0272  3004               	movlw	4
  3047     0273  0654               	xorwf	main@screen_flag^(0+128),w
  3048     0274  1D03               	btfss	3,2
  3049     0275  2A77               	goto	u5051
  3050     0276  2A78               	goto	u5050
  3051     0277                     u5051:
  3052     0277  2A7A               	goto	l242
  3053     0278                     u5050:
  3054     0278                     l5347:
  3055                           
  3056                           ;main.c: 143:                 break;
  3057     0278  01D4               	clrf	main@screen_flag^(0+128)
  3058     0279  2A44               	goto	l5331
  3059     027A                     l242:
  3060     027A  2BEE               	goto	l5463
  3061     027B                     l5351:
  3062                           
  3063                           ;main.c: 153:                         break;
  3064     027B  0855               	movf	main@speed^(0+128),w
  3065     027C  1283               	bcf	3,5	;RP0=0, select bank0
  3066     027D  1303               	bcf	3,6	;RP1=0, select bank0
  3067     027E  00CB               	movwf	display_dashboard@speed
  3068     027F  30CF               	movlw	(low (main@event| 0))& (0+255)
  3069     0280  160A  118A  262E  120A  118A  	fcall	_display_dashboard
  3070                           
  3071                           ;main.c: 154:                     case 0x01:
  3072     0285  2C0A               	goto	l5465
  3073     0286                     l5353:
  3074                           
  3075                           ;main.c: 159:                         _delay((unsigned long)((100)*(20000000/4000000.0))
      +                          );
  3076     0286  1683               	bsf	3,5	;RP0=1, select bank1
  3077     0287  1303               	bcf	3,6	;RP1=0, select bank1
  3078     0288  01D4               	clrf	main@screen_flag^(0+128)
  3079     0289                     l5355:
  3080                           
  3081                           ;main.c: 160:                         reset_flag = 0x05;
  3082     0289  1283               	bcf	3,5	;RP0=0, select bank0
  3083     028A  1303               	bcf	3,6	;RP1=0, select bank0
  3084     028B  1112               	bcf	18,2	;volatile
  3085     028C                     l5357:
  3086                           
  3087                           ;main.c: 161:                         continue;
  3088     028C  01F2               	clrf	clcd_write@mode
  3089     028D  300C               	movlw	12
  3090     028E  160A  118A  23BB  120A  118A  	fcall	_clcd_write
  3091     0293                     l5359:
  3092                           
  3093                           ;main.c: 162:                 }
  3094     0293  30A5               	movlw	165
  3095     0294  1283               	bcf	3,5	;RP0=0, select bank0
  3096     0295  1303               	bcf	3,6	;RP1=0, select bank0
  3097     0296  00DF               	movwf	??_main
  3098     0297                     u5137:
  3099     0297  0BDF               	decfsz	??_main,f
  3100     0298  2A97               	goto	u5137
  3101     0299  2A9A               	nop2
  3102     029A                     l5361:
  3103                           
  3104                           ;main.c: 163:                 break;
  3105     029A  160A  118A  2114  120A  118A  	fcall	_clear_screen
  3106                           
  3107                           ;main.c: 164:             case 4:
  3108     029F  2C0A               	goto	l5465
  3109     02A0                     l5363:
  3110                           
  3111                           ;main.c: 166:                 switch (display_menu(key, reset_flag)) {
  3112     02A0  160A  118A  2114  120A  118A  	fcall	_clear_screen
  3113     02A5                     l5365:
  3114                           
  3115                           ;main.c: 167: 
  3116     02A5  3004               	movlw	4
  3117     02A6  1683               	bsf	3,5	;RP0=1, select bank1
  3118     02A7  1303               	bcf	3,6	;RP1=0, select bank1
  3119     02A8  00D4               	movwf	main@screen_flag^(0+128)
  3120     02A9                     l5367:
  3121                           
  3122                           ;main.c: 168:                     case 0x33:
  3123     02A9  1283               	bcf	3,5	;RP0=0, select bank0
  3124     02AA  1303               	bcf	3,6	;RP1=0, select bank0
  3125     02AB  1512               	bsf	18,2	;volatile
  3126     02AC                     l5369:
  3127                           
  3128                           ;main.c: 169: 
  3129     02AC  01F2               	clrf	clcd_write@mode
  3130     02AD  300C               	movlw	12
  3131     02AE  160A  118A  23BB  120A  118A  	fcall	_clcd_write
  3132                           
  3133                           ;main.c: 170:                         clear_screen();
  3134     02B3  30A5               	movlw	165
  3135     02B4  1283               	bcf	3,5	;RP0=0, select bank0
  3136     02B5  1303               	bcf	3,6	;RP1=0, select bank0
  3137     02B6  00DF               	movwf	??_main
  3138     02B7                     u5147:
  3139     02B7  0BDF               	decfsz	??_main,f
  3140     02B8  2AB7               	goto	u5147
  3141     02B9  2ABA               	nop2
  3142                           
  3143                           ;main.c: 171: 
  3144     02BA  3005               	movlw	5
  3145     02BB  1683               	bsf	3,5	;RP0=1, select bank1
  3146     02BC  1303               	bcf	3,6	;RP1=0, select bank1
  3147     02BD  00D3               	movwf	main@reset_flag^(0+128)
  3148                           
  3149                           ;main.c: 172:                         screen_flag = 0;
  3150     02BE  286A               	goto	l5209
  3151     02BF                     l5373:
  3152     02BF  0853               	movf	main@reset_flag^(0+128),w
  3153     02C0  1283               	bcf	3,5	;RP0=0, select bank0
  3154     02C1  1303               	bcf	3,6	;RP1=0, select bank0
  3155     02C2  00CB               	movwf	login@reset_flag
  3156     02C3  1683               	bsf	3,5	;RP0=1, select bank1
  3157     02C4  1303               	bcf	3,6	;RP1=0, select bank1
  3158     02C5  0856               	movf	main@key^(0+128),w
  3159     02C6  120A  158A  2656  120A  118A  	fcall	_login
  3160                           
  3161                           ; Switch size 1, requested type "simple"
  3162                           ; Number of cases is 2, Range of values is 1 to 51
  3163                           ; switch strategies available:
  3164                           ; Name         Instructions Cycles
  3165                           ; simple_byte            7     4 (average)
  3166                           ; direct_byte          164    11 (fixed)
  3167                           ; jumptable            263     9 (fixed)
  3168                           ;	Chosen strategy is simple_byte
  3169     02CB  3A01               	xorlw	1	; case 1
  3170     02CC  1903               	skipnz
  3171     02CD  2AA0               	goto	l5363
  3172     02CE  3A32               	xorlw	50	; case 51
  3173     02CF  1903               	skipnz
  3174     02D0  2A86               	goto	l5353
  3175     02D1  2C0A               	goto	l5465
  3176     02D2                     l5375:
  3177                           
  3178                           ;main.c: 181:                     case 1:
  3179     02D2  160A  118A  2114  120A  118A  	fcall	_clear_screen
  3180     02D7                     l5377:
  3181                           
  3182                           ;main.c: 183:                         break;
  3183     02D7  1683               	bsf	3,5	;RP0=1, select bank1
  3184     02D8  1303               	bcf	3,6	;RP1=0, select bank1
  3185     02D9  01D4               	clrf	main@screen_flag^(0+128)
  3186     02DA                     l5379:
  3187                           
  3188                           ;main.c: 185:                     case 2:
  3189     02DA  1283               	bcf	3,5	;RP0=0, select bank0
  3190     02DB  1303               	bcf	3,6	;RP1=0, select bank0
  3191     02DC  1112               	bcf	18,2	;volatile
  3192                           
  3193                           ;main.c: 186:                         menu_pos = 2;
  3194     02DD  2C0A               	goto	l5465
  3195     02DE                     l5381:
  3196                           
  3197                           ;main.c: 189:                     case 3:
  3198     02DE  1683               	bsf	3,5	;RP0=1, select bank1
  3199     02DF  1303               	bcf	3,6	;RP1=0, select bank1
  3200     02E0  01CE               	clrf	main@menu_pos^(0+128)
  3201                           
  3202                           ;main.c: 190:                         menu_pos = 3;
  3203     02E1  2C0A               	goto	l5465
  3204     02E2                     l271:	
  3205                           ;main.c: 192: 
  3206                           
  3207                           
  3208                           ;main.c: 193:                     case 4:
  3209     02E2  1683               	bsf	3,5	;RP0=1, select bank1
  3210     02E3  1303               	bcf	3,6	;RP1=0, select bank1
  3211     02E4  01CE               	clrf	main@menu_pos^(0+128)
  3212     02E5  0ACE               	incf	main@menu_pos^(0+128),f
  3213                           
  3214                           ;main.c: 194:                         menu_pos = 4;
  3215     02E6  2C0A               	goto	l5465
  3216     02E7                     l5383:
  3217                           
  3218                           ;main.c: 197:                 break;
  3219     02E7  3002               	movlw	2
  3220     02E8  1683               	bsf	3,5	;RP0=1, select bank1
  3221     02E9  1303               	bcf	3,6	;RP1=0, select bank1
  3222     02EA  00CE               	movwf	main@menu_pos^(0+128)
  3223                           
  3224                           ;main.c: 198:             case 8:
  3225     02EB  2C0A               	goto	l5465
  3226     02EC                     l5385:
  3227                           
  3228                           ;main.c: 201:                     clear_screen();
  3229     02EC  3003               	movlw	3
  3230     02ED  1683               	bsf	3,5	;RP0=1, select bank1
  3231     02EE  1303               	bcf	3,6	;RP1=0, select bank1
  3232     02EF  00CE               	movwf	main@menu_pos^(0+128)
  3233                           
  3234                           ;main.c: 202:                     screen_flag = 0;
  3235     02F0  2C0A               	goto	l5465
  3236     02F1                     l5387:
  3237                           
  3238                           ;main.c: 205:                 break;
  3239     02F1  3004               	movlw	4
  3240     02F2  1683               	bsf	3,5	;RP0=1, select bank1
  3241     02F3  1303               	bcf	3,6	;RP1=0, select bank1
  3242     02F4  00CE               	movwf	main@menu_pos^(0+128)
  3243                           
  3244                           ;main.c: 206:             case 10:
  3245     02F5  2C0A               	goto	l5465
  3246     02F6                     l5391:
  3247     02F6  0853               	movf	main@reset_flag^(0+128),w
  3248     02F7  1283               	bcf	3,5	;RP0=0, select bank0
  3249     02F8  1303               	bcf	3,6	;RP1=0, select bank0
  3250     02F9  00CB               	movwf	display_menu@reset_flag
  3251     02FA  1683               	bsf	3,5	;RP0=1, select bank1
  3252     02FB  1303               	bcf	3,6	;RP1=0, select bank1
  3253     02FC  0856               	movf	main@key^(0+128),w
  3254     02FD  120A  158A  21D4  120A  118A  	fcall	_display_menu
  3255                           
  3256                           ; Switch size 1, requested type "simple"
  3257                           ; Number of cases is 6, Range of values is 0 to 51
  3258                           ; switch strategies available:
  3259                           ; Name         Instructions Cycles
  3260                           ; simple_byte           19    10 (average)
  3261                           ; direct_byte          164     8 (fixed)
  3262                           ; jumptable            260     6 (fixed)
  3263                           ;	Chosen strategy is simple_byte
  3264     0302  3A00               	xorlw	0	; case 0
  3265     0303  1903               	skipnz
  3266     0304  2ADE               	goto	l5381
  3267     0305  3A01               	xorlw	1	; case 1
  3268     0306  1903               	skipnz
  3269     0307  2AE2               	goto	l271
  3270     0308  3A03               	xorlw	3	; case 2
  3271     0309  1903               	skipnz
  3272     030A  2AE7               	goto	l5383
  3273     030B  3A01               	xorlw	1	; case 3
  3274     030C  1903               	skipnz
  3275     030D  2AEC               	goto	l5385
  3276     030E  3A07               	xorlw	7	; case 4
  3277     030F  1903               	skipnz
  3278     0310  2AF1               	goto	l5387
  3279     0311  3A37               	xorlw	55	; case 51
  3280     0312  1903               	skipnz
  3281     0313  2AD2               	goto	l5375
  3282     0314  2C0A               	goto	l5465
  3283     0315                     l5393:
  3284                           
  3285                           ;main.c: 211:                 if (reset_flag == 0x44)
  3286     0315  0853               	movf	main@reset_flag^(0+128),w
  3287     0316  1283               	bcf	3,5	;RP0=0, select bank0
  3288     0317  1303               	bcf	3,6	;RP1=0, select bank0
  3289     0318  00CB               	movwf	view_records@reset_flag
  3290     0319  1683               	bsf	3,5	;RP0=1, select bank1
  3291     031A  1303               	bcf	3,6	;RP1=0, select bank1
  3292     031B  0856               	movf	main@key^(0+128),w
  3293     031C  120A  158A  23A5  120A  118A  	fcall	_view_records
  3294     0321  3A33               	xorlw	51
  3295     0322  1D03               	skipz
  3296     0323  2B25               	goto	u5061
  3297     0324  2B26               	goto	u5060
  3298     0325                     u5061:
  3299     0325  2C0A               	goto	l5465
  3300     0326                     u5060:
  3301     0326                     l5395:
  3302                           
  3303                           ;main.c: 212:                     record_event("CL", speed);
  3304     0326  160A  118A  2114  120A  118A  	fcall	_clear_screen
  3305     032B                     l5397:
  3306                           
  3307                           ;main.c: 213: 
  3308     032B  1683               	bsf	3,5	;RP0=1, select bank1
  3309     032C  1303               	bcf	3,6	;RP1=0, select bank1
  3310     032D  01D4               	clrf	main@screen_flag^(0+128)
  3311     032E                     l5399:
  3312                           
  3313                           ;main.c: 214:                 screen_flag = 4;
  3314     032E  3005               	movlw	5
  3315     032F  1683               	bsf	3,5	;RP0=1, select bank1
  3316     0330  1303               	bcf	3,6	;RP1=0, select bank1
  3317     0331  00D3               	movwf	main@reset_flag^(0+128)
  3318     0332  2C0A               	goto	l5465
  3319     0333                     l5401:
  3320                           
  3321                           ;main.c: 219: 
  3322     0333  0853               	movf	main@reset_flag^(0+128),w
  3323     0334  160A  118A  224A  120A  118A  	fcall	_clear_records
  3324     0339  3A11               	xorlw	17
  3325     033A  1D03               	skipz
  3326     033B  2B3D               	goto	u5071
  3327     033C  2B3E               	goto	u5070
  3328     033D                     u5071:
  3329     033D  2B4D               	goto	l5405
  3330     033E                     u5070:
  3331     033E                     l5403:
  3332                           
  3333                           ;main.c: 220:                 download_records();
  3334     033E  301A               	movlw	26
  3335     033F  1283               	bcf	3,5	;RP0=0, select bank0
  3336     0340  1303               	bcf	3,6	;RP1=0, select bank0
  3337     0341  00E1               	movwf	??_main+2
  3338     0342  305E               	movlw	94
  3339     0343  00E0               	movwf	??_main+1
  3340     0344  306D               	movlw	109
  3341     0345  00DF               	movwf	??_main
  3342     0346                     u5157:
  3343     0346  0BDF               	decfsz	??_main,f
  3344     0347  2B46               	goto	u5157
  3345     0348  0BE0               	decfsz	??_main+1,f
  3346     0349  2B46               	goto	u5157
  3347     034A  0BE1               	decfsz	??_main+2,f
  3348     034B  2B46               	goto	u5157
  3349     034C  2B4D               	nop2
  3350     034D                     l5405:
  3351                           
  3352                           ;main.c: 222:                 reset_flag = 0x05;
  3353     034D  3044               	movlw	68
  3354     034E  1683               	bsf	3,5	;RP0=1, select bank1
  3355     034F  1303               	bcf	3,6	;RP1=0, select bank1
  3356     0350  0653               	xorwf	main@reset_flag^(0+128),w
  3357     0351  1D03               	btfss	3,2
  3358     0352  2B54               	goto	u5081
  3359     0353  2B55               	goto	u5080
  3360     0354                     u5081:
  3361     0354  2B66               	goto	l5409
  3362     0355                     u5080:
  3363     0355                     l5407:
  3364                           
  3365                           ;main.c: 223:                 clear_screen();
  3366     0355  30BE               	movlw	low (STR_17| (0+32768))
  3367     0356  1283               	bcf	3,5	;RP0=0, select bank0
  3368     0357  1303               	bcf	3,6	;RP1=0, select bank0
  3369     0358  00C9               	movwf	record_event@event
  3370     0359  3088               	movlw	high (STR_17| (0+32768))
  3371     035A  00CA               	movwf	record_event@event+1
  3372     035B  1683               	bsf	3,5	;RP0=1, select bank1
  3373     035C  1303               	bcf	3,6	;RP1=0, select bank1
  3374     035D  0855               	movf	main@speed^(0+128),w
  3375     035E  1283               	bcf	3,5	;RP0=0, select bank0
  3376     035F  1303               	bcf	3,6	;RP1=0, select bank0
  3377     0360  00CB               	movwf	record_event@speed
  3378     0361  160A  118A  2685  120A  118A  	fcall	_record_event
  3379     0366                     l5409:
  3380                           
  3381                           ;main.c: 225:             case 40:
  3382     0366  3004               	movlw	4
  3383     0367  1683               	bsf	3,5	;RP0=1, select bank1
  3384     0368  1303               	bcf	3,6	;RP1=0, select bank1
  3385     0369  00D4               	movwf	main@screen_flag^(0+128)
  3386     036A                     l5411:
  3387                           
  3388                           ;main.c: 226: 
  3389     036A  3005               	movlw	5
  3390     036B  00D3               	movwf	main@reset_flag^(0+128)
  3391     036C  2A9A               	goto	l5361
  3392     036D                     l5415:
  3393                           
  3394                           ;main.c: 231:                     continue;
  3395     036D  120A  158A  2280  120A  118A  	fcall	_download_records
  3396     0372  2B66               	goto	l5409
  3397     0373                     l5423:
  3398                           
  3399                           ;main.c: 238:                         _delay((unsigned long)((1000)*(20000000/4000.0)));
  3400     0373  0853               	movf	main@reset_flag^(0+128),w
  3401     0374  1283               	bcf	3,5	;RP0=0, select bank0
  3402     0375  1303               	bcf	3,6	;RP1=0, select bank0
  3403     0376  00CC               	movwf	set_time@reset_flag
  3404     0377  1683               	bsf	3,5	;RP0=1, select bank1
  3405     0378  1303               	bcf	3,6	;RP1=0, select bank1
  3406     0379  0856               	movf	main@key^(0+128),w
  3407     037A  120A  118A  2411  120A  118A  	fcall	_set_time
  3408     037F  3A11               	xorlw	17
  3409     0380  1D03               	skipz
  3410     0381  2B83               	goto	u5091
  3411     0382  2B84               	goto	u5090
  3412     0383                     u5091:
  3413     0383  2C0A               	goto	l5465
  3414     0384                     u5090:
  3415     0384                     l5425:
  3416                           
  3417                           ;main.c: 239:                         record_event("CP", speed);
  3418     0384  3004               	movlw	4
  3419     0385  1683               	bsf	3,5	;RP0=1, select bank1
  3420     0386  1303               	bcf	3,6	;RP1=0, select bank1
  3421     0387  00D4               	movwf	main@screen_flag^(0+128)
  3422                           
  3423                           ;main.c: 240:                         screen_flag = 4;
  3424     0388  3005               	movlw	5
  3425     0389  00D3               	movwf	main@reset_flag^(0+128)
  3426     038A                     l5427:
  3427                           
  3428                           ;main.c: 241:                         reset_flag = 0x05;
  3429     038A  160A  118A  2114  120A  118A  	fcall	_clear_screen
  3430                           
  3431                           ;main.c: 242:                         TMR2ON = 1;
  3432     038F  286A               	goto	l5209
  3433     0390                     l5429:
  3434                           
  3435                           ;main.c: 249:                         clear_screen();
  3436     0390  301A               	movlw	26
  3437     0391  1283               	bcf	3,5	;RP0=0, select bank0
  3438     0392  1303               	bcf	3,6	;RP1=0, select bank0
  3439     0393  00E1               	movwf	??_main+2
  3440     0394  305E               	movlw	94
  3441     0395  00E0               	movwf	??_main+1
  3442     0396  306D               	movlw	109
  3443     0397  00DF               	movwf	??_main
  3444     0398                     u5167:
  3445     0398  0BDF               	decfsz	??_main,f
  3446     0399  2B98               	goto	u5167
  3447     039A  0BE0               	decfsz	??_main+1,f
  3448     039B  2B98               	goto	u5167
  3449     039C  0BE1               	decfsz	??_main+2,f
  3450     039D  2B98               	goto	u5167
  3451     039E  2B9F               	nop2
  3452     039F                     l5431:
  3453                           
  3454                           ;main.c: 250:                         screen_flag = 0;
  3455     039F  30CA               	movlw	low (STR_18| (0+32768))
  3456     03A0  1283               	bcf	3,5	;RP0=0, select bank0
  3457     03A1  1303               	bcf	3,6	;RP1=0, select bank0
  3458     03A2  00C9               	movwf	record_event@event
  3459     03A3  3088               	movlw	high (STR_18| (0+32768))
  3460     03A4  00CA               	movwf	record_event@event+1
  3461     03A5  1683               	bsf	3,5	;RP0=1, select bank1
  3462     03A6  1303               	bcf	3,6	;RP1=0, select bank1
  3463     03A7  0855               	movf	main@speed^(0+128),w
  3464     03A8  1283               	bcf	3,5	;RP0=0, select bank0
  3465     03A9  1303               	bcf	3,6	;RP1=0, select bank0
  3466     03AA  00CB               	movwf	record_event@speed
  3467     03AB  160A  118A  2685  120A  118A  	fcall	_record_event
  3468     03B0                     l5433:
  3469                           
  3470                           ;main.c: 251:                         TMR2ON = 0;
  3471     03B0  3004               	movlw	4
  3472     03B1  1683               	bsf	3,5	;RP0=1, select bank1
  3473     03B2  1303               	bcf	3,6	;RP1=0, select bank1
  3474     03B3  00D4               	movwf	main@screen_flag^(0+128)
  3475     03B4                     l5435:
  3476                           
  3477                           ;main.c: 252:                         clcd_write(0x0C, 0);
  3478     03B4  3005               	movlw	5
  3479     03B5  00D3               	movwf	main@reset_flag^(0+128)
  3480     03B6                     l5437:
  3481                           
  3482                           ;main.c: 253:                         _delay((unsigned long)((100)*(20000000/4000000.0))
      +                          );
  3483     03B6  1283               	bcf	3,5	;RP0=0, select bank0
  3484     03B7  1303               	bcf	3,6	;RP1=0, select bank0
  3485     03B8  1512               	bsf	18,2	;volatile
  3486     03B9                     l5439:
  3487                           
  3488                           ;main.c: 254:                         reset_flag = 0x05;
  3489     03B9  01F2               	clrf	clcd_write@mode
  3490     03BA  300C               	movlw	12
  3491     03BB  160A  118A  23BB  120A  118A  	fcall	_clcd_write
  3492     03C0  2A93               	goto	l5359
  3493     03C1                     l5445:
  3494                           
  3495                           ;main.c: 260:     }
  3496     03C1  160A  118A  2114  120A  118A  	fcall	_clear_screen
  3497     03C6                     l5447:
  3498                           
  3499                           ;main.c: 261: }
  3500     03C6  1683               	bsf	3,5	;RP0=1, select bank1
  3501     03C7  1303               	bcf	3,6	;RP1=0, select bank1
  3502     03C8  01D4               	clrf	main@screen_flag^(0+128)
  3503     03C9                     l5449:
  3504     03C9  1283               	bcf	3,5	;RP0=0, select bank0
  3505     03CA  1303               	bcf	3,6	;RP1=0, select bank0
  3506     03CB  1112               	bcf	18,2	;volatile
  3507     03CC                     l5451:
  3508     03CC  01F2               	clrf	clcd_write@mode
  3509     03CD  300C               	movlw	12
  3510     03CE  160A  118A  23BB  120A  118A  	fcall	_clcd_write
  3511     03D3                     l5453:
  3512     03D3  30A5               	movlw	165
  3513     03D4  1283               	bcf	3,5	;RP0=0, select bank0
  3514     03D5  1303               	bcf	3,6	;RP1=0, select bank0
  3515     03D6  00DF               	movwf	??_main
  3516     03D7                     u5177:
  3517     03D7  0BDF               	decfsz	??_main,f
  3518     03D8  2BD7               	goto	u5177
  3519     03D9  2BDA               	nop2
  3520     03DA  2B2E               	goto	l5399
  3521     03DB                     l5459:
  3522     03DB  0853               	movf	main@reset_flag^(0+128),w
  3523     03DC  1283               	bcf	3,5	;RP0=0, select bank0
  3524     03DD  1303               	bcf	3,6	;RP1=0, select bank0
  3525     03DE  00CB               	movwf	password_change@reset_flag
  3526     03DF  1683               	bsf	3,5	;RP0=1, select bank1
  3527     03E0  1303               	bcf	3,6	;RP1=0, select bank1
  3528     03E1  0856               	movf	main@key^(0+128),w
  3529     03E2  120A  158A  24DD  120A  118A  	fcall	_password_change
  3530                           
  3531                           ; Switch size 1, requested type "simple"
  3532                           ; Number of cases is 2, Range of values is 17 to 51
  3533                           ; switch strategies available:
  3534                           ; Name         Instructions Cycles
  3535                           ; simple_byte            7     4 (average)
  3536                           ; direct_byte          116    11 (fixed)
  3537                           ; jumptable            263     9 (fixed)
  3538                           ;	Chosen strategy is simple_byte
  3539     03E7  3A11               	xorlw	17	; case 17
  3540     03E8  1903               	skipnz
  3541     03E9  2B90               	goto	l5429
  3542     03EA  3A22               	xorlw	34	; case 51
  3543     03EB  1903               	skipnz
  3544     03EC  2BC1               	goto	l5445
  3545     03ED  2C0A               	goto	l5465
  3546     03EE                     l5463:
  3547     03EE  1683               	bsf	3,5	;RP0=1, select bank1
  3548     03EF  1303               	bcf	3,6	;RP1=0, select bank1
  3549     03F0  0854               	movf	main@screen_flag^(0+128),w
  3550                           
  3551                           ; Switch size 1, requested type "simple"
  3552                           ; Number of cases is 8, Range of values is 0 to 80
  3553                           ; switch strategies available:
  3554                           ; Name         Instructions Cycles
  3555                           ; simple_byte           25    13 (average)
  3556                           ; direct_byte          251     8 (fixed)
  3557                           ; jumptable            260     6 (fixed)
  3558                           ;	Chosen strategy is simple_byte
  3559     03F1  3A00               	xorlw	0	; case 0
  3560     03F2  1903               	skipnz
  3561     03F3  2A7B               	goto	l5351
  3562     03F4  3A01               	xorlw	1	; case 1
  3563     03F5  1903               	skipnz
  3564     03F6  2ABF               	goto	l5373
  3565     03F7  3A05               	xorlw	5	; case 4
  3566     03F8  1903               	skipnz
  3567     03F9  2AF6               	goto	l5391
  3568     03FA  3A0C               	xorlw	12	; case 8
  3569     03FB  1903               	skipnz
  3570     03FC  2B15               	goto	l5393
  3571     03FD  3A02               	xorlw	2	; case 10
  3572     03FE  1903               	skipnz
  3573     03FF  2B33               	goto	l5401
  3574     0400  3A1E               	xorlw	30	; case 20
  3575     0401  1903               	skipnz
  3576     0402  2B6D               	goto	l5415
  3577     0403  3A3C               	xorlw	60	; case 40
  3578     0404  1903               	skipnz
  3579     0405  2B73               	goto	l5423
  3580     0406  3A78               	xorlw	120	; case 80
  3581     0407  1903               	skipnz
  3582     0408  2BDB               	goto	l5459
  3583     0409  2C0A               	goto	l5465
  3584     040A                     l5465:
  3585     040A  1683               	bsf	3,5	;RP0=1, select bank1
  3586     040B  1303               	bcf	3,6	;RP1=0, select bank1
  3587     040C  01D3               	clrf	main@reset_flag^(0+128)
  3588     040D  286A               	goto	l5209
  3589     040E  120A  118A  280C   	ljmp	start
  3590     0411                     __end_of_main:
  3591                           
  3592                           	psect	text1
  3593     0BA5                     __ptext1:	
  3594 ;; *************** function _view_records *****************
  3595 ;; Defined at:
  3596 ;;		line 235 in file "function_definitions.c"
  3597 ;; Parameters:    Size  Location     Type
  3598 ;;  key             1    wreg     unsigned char 
  3599 ;;  reset_flag      1    2[BANK0 ] unsigned char 
  3600 ;; Auto vars:     Size  Location     Type
  3601 ;;  key             1   21[BANK0 ] unsigned char 
  3602 ;;  i               2   19[BANK0 ] int 
  3603 ;;  records        11    5[BANK0 ] unsigned char [11]
  3604 ;;  record_pos      2   16[BANK0 ] int 
  3605 ;;  addr            1   18[BANK0 ] unsigned char 
  3606 ;; Return value:  Size  Location     Type
  3607 ;;                  1    wreg      unsigned char 
  3608 ;; Registers used:
  3609 ;;		wreg, fsr0l, fsr0h, status,2, status,0, btemp+1, pclath, cstack
  3610 ;; Tracked objects:
  3611 ;;		On entry : 0/0
  3612 ;;		On exit  : 0/0
  3613 ;;		Unchanged: 0/0
  3614 ;; Data sizes:     COMMON   BANK0   BANK1   BANK3   BANK2
  3615 ;;      Params:         0       1       0       0       0
  3616 ;;      Locals:         0      17       0       0       0
  3617 ;;      Temps:          0       2       0       0       0
  3618 ;;      Totals:         0      20       0       0       0
  3619 ;;Total ram usage:       20 bytes
  3620 ;; Hardware stack levels used: 1
  3621 ;; Hardware stack levels required when called: 5
  3622 ;; This function calls:
  3623 ;;		___bmul
  3624 ;;		_clcd_print
  3625 ;;		_clcd_putch
  3626 ;;		_eeprom_read
  3627 ;; This function is called by:
  3628 ;;		_main
  3629 ;; This function uses a non-reentrant model
  3630 ;;
  3631                           
  3632     0BA5                     _view_records:	
  3633                           ;psect for function _view_records
  3634                           
  3635                           
  3636                           ;incstack = 0
  3637                           ; Regs used in _view_records: [wreg-fsr0h+status,2+status,0+btemp+1+pclath+cstack]
  3638                           ;view_records@key stored from wreg
  3639     0BA5  1283               	bcf	3,5	;RP0=0, select bank0
  3640     0BA6  1303               	bcf	3,6	;RP1=0, select bank0
  3641     0BA7  00DE               	movwf	view_records@key
  3642     0BA8                     l4773:
  3643                           
  3644                           ;function_definitions.c: 236:     static char record_number;;function_definitions.c: 237
      +                          :     unsigned char records[11];;function_definitions.c: 238:     int record_pos;;functi
      +                          on_definitions.c: 239:     unsigned char addr;;function_definitions.c: 242:     if (reco
      +                          rd_count == -1) {
  3645     0BA8  0A62               	incf	_record_count,w
  3646     0BA9  1D03               	skipz
  3647     0BAA  2BAF               	goto	u4471
  3648     0BAB  0A63               	incf	_record_count+1,w
  3649     0BAC  1D03               	btfss	3,2
  3650     0BAD  2BAF               	goto	u4471
  3651     0BAE  2BB0               	goto	u4470
  3652     0BAF                     u4471:
  3653     0BAF  2BBC               	goto	l4777
  3654     0BB0                     u4470:
  3655     0BB0                     l4775:
  3656                           
  3657                           ;function_definitions.c: 243:         clcd_print("    No logs     ", (0xC0 + 0));
  3658     0BB0  3037               	movlw	low (STR_32| (0+32768))
  3659     0BB1  00F6               	movwf	clcd_print@str
  3660     0BB2  3087               	movlw	high (STR_32| (0+32768))
  3661     0BB3  00F7               	movwf	clcd_print@str+1
  3662     0BB4  30C0               	movlw	192
  3663     0BB5  00F8               	movwf	clcd_print@addr
  3664     0BB6  160A  118A  22F8  120A  158A  	fcall	_clcd_print
  3665                           
  3666                           ;function_definitions.c: 244:     } else {
  3667     0BBB  2CDC               	goto	l402
  3668     0BBC                     l4777:
  3669                           
  3670                           ;function_definitions.c: 246:         if (reset_flag == 0x08) {
  3671     0BBC  3008               	movlw	8
  3672     0BBD  064B               	xorwf	view_records@reset_flag,w
  3673     0BBE  1D03               	btfss	3,2
  3674     0BBF  2BC1               	goto	u4481
  3675     0BC0  2BC2               	goto	u4480
  3676     0BC1                     u4481:
  3677     0BC1  2BC3               	goto	l4781
  3678     0BC2                     u4480:
  3679     0BC2                     l4779:
  3680                           
  3681                           ;function_definitions.c: 247:             record_number = 0;
  3682     0BC2  01B8               	clrf	view_records@record_number
  3683     0BC3                     l4781:
  3684                           
  3685                           ;function_definitions.c: 250:         if (key == 0x37 && record_number > 0) {
  3686     0BC3  3037               	movlw	55
  3687     0BC4  065E               	xorwf	view_records@key,w
  3688     0BC5  1D03               	btfss	3,2
  3689     0BC6  2BC8               	goto	u4491
  3690     0BC7  2BC9               	goto	u4490
  3691     0BC8                     u4491:
  3692     0BC8  2BD1               	goto	l4787
  3693     0BC9                     u4490:
  3694     0BC9                     l4783:
  3695     0BC9  0838               	movf	view_records@record_number,w
  3696     0BCA  1903               	btfsc	3,2
  3697     0BCB  2BCD               	goto	u4501
  3698     0BCC  2BCE               	goto	u4500
  3699     0BCD                     u4501:
  3700     0BCD  2BD1               	goto	l4787
  3701     0BCE                     u4500:
  3702     0BCE                     l4785:
  3703                           
  3704                           ;function_definitions.c: 251:             record_number--;
  3705     0BCE  3001               	movlw	1
  3706     0BCF  02B8               	subwf	view_records@record_number,f
  3707                           
  3708                           ;function_definitions.c: 252:         }
  3709     0BD0  2C0E               	goto	l4805
  3710     0BD1                     l4787:
  3711     0BD1  3037               	movlw	55
  3712     0BD2  065E               	xorwf	view_records@key,w
  3713     0BD3  1D03               	btfss	3,2
  3714     0BD4  2BD6               	goto	u4511
  3715     0BD5  2BD7               	goto	u4510
  3716     0BD6                     u4511:
  3717     0BD6  2BDF               	goto	l4793
  3718     0BD7                     u4510:
  3719     0BD7                     l4789:
  3720     0BD7  0838               	movf	view_records@record_number,w
  3721     0BD8  1D03               	btfss	3,2
  3722     0BD9  2BDB               	goto	u4521
  3723     0BDA  2BDC               	goto	u4520
  3724     0BDB                     u4521:
  3725     0BDB  2BDF               	goto	l4793
  3726     0BDC                     u4520:
  3727     0BDC                     l4791:
  3728                           
  3729                           ;function_definitions.c: 254:             record_number = record_count;
  3730     0BDC  0862               	movf	_record_count,w
  3731     0BDD  00B8               	movwf	view_records@record_number
  3732                           
  3733                           ;function_definitions.c: 255:         }
  3734     0BDE  2C0E               	goto	l4805
  3735     0BDF                     l4793:
  3736     0BDF  302F               	movlw	47
  3737     0BE0  065E               	xorwf	view_records@key,w
  3738     0BE1  1D03               	btfss	3,2
  3739     0BE2  2BE4               	goto	u4531
  3740     0BE3  2BE5               	goto	u4530
  3741     0BE4                     u4531:
  3742     0BE4  2BF7               	goto	l4799
  3743     0BE5                     u4530:
  3744     0BE5                     l4795:
  3745     0BE5  0863               	movf	_record_count+1,w
  3746     0BE6  3A80               	xorlw	128
  3747     0BE7  3C80               	sublw	128
  3748     0BE8  1D03               	skipz
  3749     0BE9  2BEC               	goto	u4545
  3750     0BEA  0862               	movf	_record_count,w
  3751     0BEB  0238               	subwf	view_records@record_number,w
  3752     0BEC                     u4545:
  3753     0BEC  1803               	skipnc
  3754     0BED  2BEF               	goto	u4541
  3755     0BEE  2BF0               	goto	u4540
  3756     0BEF                     u4541:
  3757     0BEF  2BF7               	goto	l4799
  3758     0BF0                     u4540:
  3759     0BF0                     l4797:
  3760                           
  3761                           ;function_definitions.c: 257:             record_number++;
  3762     0BF0  3001               	movlw	1
  3763     0BF1  00FF               	movwf	btemp+1
  3764     0BF2  087F               	movf	btemp+1,w
  3765     0BF3  1283               	bcf	3,5	;RP0=0, select bank0
  3766     0BF4  1303               	bcf	3,6	;RP1=0, select bank0
  3767     0BF5  07B8               	addwf	view_records@record_number,f
  3768                           
  3769                           ;function_definitions.c: 258:         }
  3770     0BF6  2C0E               	goto	l4805
  3771     0BF7                     l4799:
  3772     0BF7  302F               	movlw	47
  3773     0BF8  1283               	bcf	3,5	;RP0=0, select bank0
  3774     0BF9  1303               	bcf	3,6	;RP1=0, select bank0
  3775     0BFA  065E               	xorwf	view_records@key,w
  3776     0BFB  1D03               	btfss	3,2
  3777     0BFC  2BFE               	goto	u4551
  3778     0BFD  2BFF               	goto	u4550
  3779     0BFE                     u4551:
  3780     0BFE  2C0E               	goto	l397
  3781     0BFF                     u4550:
  3782     0BFF                     l4801:
  3783     0BFF  0838               	movf	view_records@record_number,w
  3784     0C00  00CC               	movwf	??_view_records
  3785     0C01  01CD               	clrf	??_view_records+1
  3786     0C02  0863               	movf	_record_count+1,w
  3787     0C03  064D               	xorwf	??_view_records+1,w
  3788     0C04  1D03               	skipz
  3789     0C05  2C08               	goto	u4565
  3790     0C06  0862               	movf	_record_count,w
  3791     0C07  064C               	xorwf	??_view_records,w
  3792     0C08                     u4565:
  3793     0C08  1D03               	skipz
  3794     0C09  2C0B               	goto	u4561
  3795     0C0A  2C0C               	goto	u4560
  3796     0C0B                     u4561:
  3797     0C0B  2C0E               	goto	l397
  3798     0C0C                     u4560:
  3799     0C0C                     l4803:
  3800                           
  3801                           ;function_definitions.c: 260:             record_number = 0;
  3802     0C0C  01B8               	clrf	view_records@record_number
  3803     0C0D  2C0E               	goto	l4805
  3804     0C0E                     l397:
  3805     0C0E                     l4805:
  3806                           
  3807                           ;function_definitions.c: 263:         if(key == 0x90)
  3808     0C0E  3090               	movlw	144
  3809     0C0F  065E               	xorwf	view_records@key,w
  3810     0C10  1D03               	btfss	3,2
  3811     0C11  2C13               	goto	u4571
  3812     0C12  2C14               	goto	u4570
  3813     0C13                     u4571:
  3814     0C13  2C16               	goto	l4811
  3815     0C14                     u4570:
  3816     0C14                     l4807:
  3817                           
  3818                           ;function_definitions.c: 264:             return 0x33;
  3819     0C14  3033               	movlw	51
  3820     0C15  2CDC               	goto	l402
  3821     0C16                     l4811:
  3822                           
  3823                           ;function_definitions.c: 266:         record_pos = record_number;
  3824     0C16  0838               	movf	view_records@record_number,w
  3825     0C17  00CC               	movwf	??_view_records
  3826     0C18  01CD               	clrf	??_view_records+1
  3827     0C19  084C               	movf	??_view_records,w
  3828     0C1A  00D9               	movwf	view_records@record_pos
  3829     0C1B  084D               	movf	??_view_records+1,w
  3830     0C1C  00DA               	movwf	view_records@record_pos+1
  3831     0C1D                     l4813:
  3832                           
  3833                           ;function_definitions.c: 269:         for (int i = 0; i < 10; i++) {
  3834     0C1D  01DC               	clrf	view_records@i
  3835     0C1E  01DD               	clrf	view_records@i+1
  3836     0C1F                     l4819:
  3837                           
  3838                           ;function_definitions.c: 270:             addr = (record_pos * 10) + 5 + i;
  3839     0C1F  300A               	movlw	10
  3840     0C20  00F2               	movwf	___bmul@multiplicand
  3841     0C21  1283               	bcf	3,5	;RP0=0, select bank0
  3842     0C22  1303               	bcf	3,6	;RP1=0, select bank0
  3843     0C23  0859               	movf	view_records@record_pos,w
  3844     0C24  160A  118A  2172  120A  158A  	fcall	___bmul
  3845     0C29  1283               	bcf	3,5	;RP0=0, select bank0
  3846     0C2A  1303               	bcf	3,6	;RP1=0, select bank0
  3847     0C2B  075C               	addwf	view_records@i,w
  3848     0C2C  3E05               	addlw	5
  3849     0C2D  00DB               	movwf	view_records@addr
  3850     0C2E                     l4821:
  3851                           
  3852                           ;function_definitions.c: 271:             records[i] = eeprom_read(addr);
  3853     0C2E  085C               	movf	view_records@i,w
  3854     0C2F  3E4E               	addlw	(low (view_records@records| 0))& (0+255)
  3855     0C30  0084               	movwf	4
  3856     0C31  085B               	movf	view_records@addr,w
  3857     0C32  160A  118A  22A0  120A  158A  	fcall	_eeprom_read
  3858     0C37  1383               	bcf	3,7	;select IRP bank0
  3859     0C38  0080               	movwf	0
  3860     0C39                     l4823:
  3861                           
  3862                           ;function_definitions.c: 272:         }
  3863     0C39  3001               	movlw	1
  3864     0C3A  1283               	bcf	3,5	;RP0=0, select bank0
  3865     0C3B  1303               	bcf	3,6	;RP1=0, select bank0
  3866     0C3C  07DC               	addwf	view_records@i,f
  3867     0C3D  1803               	skipnc
  3868     0C3E  0ADD               	incf	view_records@i+1,f
  3869     0C3F  3000               	movlw	0
  3870     0C40  07DD               	addwf	view_records@i+1,f
  3871     0C41                     l4825:
  3872     0C41  085D               	movf	view_records@i+1,w
  3873     0C42  3A80               	xorlw	128
  3874     0C43  00FF               	movwf	btemp+1
  3875     0C44  3080               	movlw	128
  3876     0C45  027F               	subwf	btemp+1,w
  3877     0C46  1D03               	skipz
  3878     0C47  2C4A               	goto	u4585
  3879     0C48  300A               	movlw	10
  3880     0C49  025C               	subwf	view_records@i,w
  3881     0C4A                     u4585:
  3882     0C4A  1C03               	skipc
  3883     0C4B  2C4D               	goto	u4581
  3884     0C4C  2C4E               	goto	u4580
  3885     0C4D                     u4581:
  3886     0C4D  2C1F               	goto	l4819
  3887     0C4E                     u4580:
  3888     0C4E                     l4827:
  3889                           
  3890                           ;function_definitions.c: 273:         records[10] = '\0';
  3891     0C4E  1283               	bcf	3,5	;RP0=0, select bank0
  3892     0C4F  1303               	bcf	3,6	;RP1=0, select bank0
  3893     0C50  01D8               	clrf	view_records@records+10
  3894     0C51                     l4829:
  3895                           
  3896                           ;function_definitions.c: 274:         clcd_putch(record_number + '0', (0xC0 + 0));
  3897     0C51  30C0               	movlw	192
  3898     0C52  00C9               	movwf	clcd_putch@addr
  3899     0C53  0838               	movf	view_records@record_number,w
  3900     0C54  3E30               	addlw	48
  3901     0C55  160A  118A  215D  120A  158A  	fcall	_clcd_putch
  3902     0C5A                     l4831:
  3903                           
  3904                           ;function_definitions.c: 277:         clcd_putch(records[0], (0xC0 + 2));
  3905     0C5A  30C2               	movlw	194
  3906     0C5B  1283               	bcf	3,5	;RP0=0, select bank0
  3907     0C5C  1303               	bcf	3,6	;RP1=0, select bank0
  3908     0C5D  00C9               	movwf	clcd_putch@addr
  3909     0C5E  084E               	movf	view_records@records,w
  3910     0C5F  160A  118A  215D  120A  158A  	fcall	_clcd_putch
  3911     0C64                     l4833:
  3912                           
  3913                           ;function_definitions.c: 278:         clcd_putch(records[1], (0xC0 + 3));
  3914     0C64  30C3               	movlw	195
  3915     0C65  1283               	bcf	3,5	;RP0=0, select bank0
  3916     0C66  1303               	bcf	3,6	;RP1=0, select bank0
  3917     0C67  00C9               	movwf	clcd_putch@addr
  3918     0C68  084F               	movf	view_records@records+1,w
  3919     0C69  160A  118A  215D  120A  158A  	fcall	_clcd_putch
  3920     0C6E                     l4835:
  3921                           
  3922                           ;function_definitions.c: 279:         clcd_putch(':', (0xC0 + 4));
  3923     0C6E  30C4               	movlw	196
  3924     0C6F  1283               	bcf	3,5	;RP0=0, select bank0
  3925     0C70  1303               	bcf	3,6	;RP1=0, select bank0
  3926     0C71  00C9               	movwf	clcd_putch@addr
  3927     0C72  303A               	movlw	58
  3928     0C73  160A  118A  215D  120A  158A  	fcall	_clcd_putch
  3929     0C78                     l4837:
  3930                           
  3931                           ;function_definitions.c: 282:         clcd_putch(records[2], (0xC0 + 5));
  3932     0C78  30C5               	movlw	197
  3933     0C79  1283               	bcf	3,5	;RP0=0, select bank0
  3934     0C7A  1303               	bcf	3,6	;RP1=0, select bank0
  3935     0C7B  00C9               	movwf	clcd_putch@addr
  3936     0C7C  0850               	movf	view_records@records+2,w
  3937     0C7D  160A  118A  215D  120A  158A  	fcall	_clcd_putch
  3938     0C82                     l4839:
  3939                           
  3940                           ;function_definitions.c: 283:         clcd_putch(records[3], (0xC0 + 6));
  3941     0C82  30C6               	movlw	198
  3942     0C83  1283               	bcf	3,5	;RP0=0, select bank0
  3943     0C84  1303               	bcf	3,6	;RP1=0, select bank0
  3944     0C85  00C9               	movwf	clcd_putch@addr
  3945     0C86  0851               	movf	view_records@records+3,w
  3946     0C87  160A  118A  215D  120A  158A  	fcall	_clcd_putch
  3947     0C8C                     l4841:
  3948                           
  3949                           ;function_definitions.c: 284:         clcd_putch(':', (0xC0 + 7));
  3950     0C8C  30C7               	movlw	199
  3951     0C8D  1283               	bcf	3,5	;RP0=0, select bank0
  3952     0C8E  1303               	bcf	3,6	;RP1=0, select bank0
  3953     0C8F  00C9               	movwf	clcd_putch@addr
  3954     0C90  303A               	movlw	58
  3955     0C91  160A  118A  215D  120A  158A  	fcall	_clcd_putch
  3956     0C96                     l4843:
  3957                           
  3958                           ;function_definitions.c: 287:         clcd_putch(records[4], (0xC0 + 8));
  3959     0C96  30C8               	movlw	200
  3960     0C97  1283               	bcf	3,5	;RP0=0, select bank0
  3961     0C98  1303               	bcf	3,6	;RP1=0, select bank0
  3962     0C99  00C9               	movwf	clcd_putch@addr
  3963     0C9A  0852               	movf	view_records@records+4,w
  3964     0C9B  160A  118A  215D  120A  158A  	fcall	_clcd_putch
  3965     0CA0                     l4845:
  3966                           
  3967                           ;function_definitions.c: 288:         clcd_putch(records[5], (0xC0 + 9));
  3968     0CA0  30C9               	movlw	201
  3969     0CA1  1283               	bcf	3,5	;RP0=0, select bank0
  3970     0CA2  1303               	bcf	3,6	;RP1=0, select bank0
  3971     0CA3  00C9               	movwf	clcd_putch@addr
  3972     0CA4  0853               	movf	view_records@records+5,w
  3973     0CA5  160A  118A  215D  120A  158A  	fcall	_clcd_putch
  3974     0CAA                     l4847:
  3975                           
  3976                           ;function_definitions.c: 291:         clcd_putch(records[6], (0xC0 + 11));
  3977     0CAA  30CB               	movlw	203
  3978     0CAB  1283               	bcf	3,5	;RP0=0, select bank0
  3979     0CAC  1303               	bcf	3,6	;RP1=0, select bank0
  3980     0CAD  00C9               	movwf	clcd_putch@addr
  3981     0CAE  0854               	movf	view_records@records+6,w
  3982     0CAF  160A  118A  215D  120A  158A  	fcall	_clcd_putch
  3983     0CB4                     l4849:
  3984                           
  3985                           ;function_definitions.c: 292:         clcd_putch(records[7], (0xC0 + 12));
  3986     0CB4  30CC               	movlw	204
  3987     0CB5  1283               	bcf	3,5	;RP0=0, select bank0
  3988     0CB6  1303               	bcf	3,6	;RP1=0, select bank0
  3989     0CB7  00C9               	movwf	clcd_putch@addr
  3990     0CB8  0855               	movf	view_records@records+7,w
  3991     0CB9  160A  118A  215D  120A  158A  	fcall	_clcd_putch
  3992     0CBE                     l4851:
  3993                           
  3994                           ;function_definitions.c: 295:         clcd_putch(records[8], (0xC0 + 14));
  3995     0CBE  30CE               	movlw	206
  3996     0CBF  1283               	bcf	3,5	;RP0=0, select bank0
  3997     0CC0  1303               	bcf	3,6	;RP1=0, select bank0
  3998     0CC1  00C9               	movwf	clcd_putch@addr
  3999     0CC2  0856               	movf	view_records@records+8,w
  4000     0CC3  160A  118A  215D  120A  158A  	fcall	_clcd_putch
  4001     0CC8                     l4853:
  4002                           
  4003                           ;function_definitions.c: 296:         clcd_putch(records[9], (0xC0 + 15));
  4004     0CC8  30CF               	movlw	207
  4005     0CC9  1283               	bcf	3,5	;RP0=0, select bank0
  4006     0CCA  1303               	bcf	3,6	;RP1=0, select bank0
  4007     0CCB  00C9               	movwf	clcd_putch@addr
  4008     0CCC  0857               	movf	view_records@records+9,w
  4009     0CCD  160A  118A  215D  120A  158A  	fcall	_clcd_putch
  4010     0CD2                     l4855:
  4011                           
  4012                           ;function_definitions.c: 298:         _delay((unsigned long)((500)*(20000000/4000000.0))
      +                          );
  4013     0CD2  3004               	movlw	4
  4014     0CD3  1283               	bcf	3,5	;RP0=0, select bank0
  4015     0CD4  1303               	bcf	3,6	;RP1=0, select bank0
  4016     0CD5  00CD               	movwf	??_view_records+1
  4017     0CD6  303D               	movlw	61
  4018     0CD7  00CC               	movwf	??_view_records
  4019     0CD8                     u5187:
  4020     0CD8  0BCC               	decfsz	??_view_records,f
  4021     0CD9  2CD8               	goto	u5187
  4022     0CDA  0BCD               	decfsz	??_view_records+1,f
  4023     0CDB  2CD8               	goto	u5187
  4024     0CDC                     l402:
  4025     0CDC  0008               	return
  4026     0CDD                     __end_of_view_records:
  4027                           
  4028                           	psect	text2
  4029     11DC                     __ptext2:	
  4030 ;; *************** function _strcpy *****************
  4031 ;; Defined at:
  4032 ;;		line 3 in file "C:\Program Files\Microchip\xc8\v2.46\pic\sources\c99\common\strcpy.c"
  4033 ;; Parameters:    Size  Location     Type
  4034 ;;  dest            1    wreg     PTR unsigned char 
  4035 ;;		 -> main@event(3), 
  4036 ;;  src             2    2[COMMON] PTR const unsigned char 
  4037 ;;		 -> STR_9(3), STR_6(3), STR_5(3), STR_4(3), 
  4038 ;;		 -> STR_3(3), STR_2(3), STR_1(3), 
  4039 ;; Auto vars:     Size  Location     Type
  4040 ;;  dest            1    7[COMMON] PTR unsigned char 
  4041 ;;		 -> main@event(3), 
  4042 ;;  d               1    6[COMMON] PTR unsigned char 
  4043 ;;		 -> main@event(3), 
  4044 ;; Return value:  Size  Location     Type
  4045 ;;                  1    wreg      PTR unsigned char 
  4046 ;; Registers used:
  4047 ;;		wreg, fsr0l, fsr0h, status,2, status,0, btemp+1, pclath
  4048 ;; Tracked objects:
  4049 ;;		On entry : 0/0
  4050 ;;		On exit  : 0/0
  4051 ;;		Unchanged: 0/0
  4052 ;; Data sizes:     COMMON   BANK0   BANK1   BANK3   BANK2
  4053 ;;      Params:         2       0       0       0       0
  4054 ;;      Locals:         2       0       0       0       0
  4055 ;;      Temps:          2       0       0       0       0
  4056 ;;      Totals:         6       0       0       0       0
  4057 ;;Total ram usage:        6 bytes
  4058 ;; Hardware stack levels used: 2
  4059 ;; Hardware stack levels required when called: 1
  4060 ;; This function calls:
  4061 ;;		Nothing
  4062 ;; This function is called by:
  4063 ;;		_main
  4064 ;; This function uses a non-reentrant model
  4065 ;;
  4066                           
  4067     11DC                     _strcpy:	
  4068                           ;psect for function _strcpy
  4069                           
  4070                           
  4071                           ;incstack = 0
  4072                           ; Regs used in _strcpy: [wreg-fsr0h+status,2+status,0+btemp+1+pclath]
  4073                           ;strcpy@dest stored from wreg
  4074     11DC  00F7               	movwf	strcpy@dest
  4075     11DD                     l4595:
  4076     11DD  0877               	movf	strcpy@dest,w
  4077     11DE  00F6               	movwf	strcpy@d
  4078     11DF                     l4597:
  4079     11DF  0873               	movf	strcpy@src+1,w
  4080     11E0  00F5               	movwf	??_strcpy+1
  4081     11E1  0872               	movf	strcpy@src,w
  4082     11E2  00F4               	movwf	??_strcpy
  4083     11E3  0AF2               	incf	strcpy@src,f
  4084     11E4  1903               	skipnz
  4085     11E5  0AF3               	incf	strcpy@src+1,f
  4086     11E6  0875               	movf	??_strcpy+1,w
  4087     11E7  1283               	bcf	3,5	;RP0=0, select bank0
  4088     11E8  1303               	bcf	3,6	;RP1=0, select bank0
  4089     11E9  00FF               	movwf	btemp+1
  4090     11EA  0874               	movf	??_strcpy,w
  4091     11EB  0084               	movwf	4
  4092     11EC  160A  118A  2000  160A  118A  	fcall	stringtab
  4093     11F1  00FF               	movwf	btemp+1
  4094     11F2  0876               	movf	strcpy@d,w
  4095     11F3  0084               	movwf	4
  4096     11F4  3001               	movlw	1
  4097     11F5  07F6               	addwf	strcpy@d,f
  4098     11F6  087F               	movf	btemp+1,w
  4099     11F7  1383               	bcf	3,7	;select IRP bank0
  4100     11F8  0080               	movwf	0
  4101     11F9  0800               	movf	0,w
  4102     11FA  1D03               	btfss	3,2
  4103     11FB  29FD               	goto	u4281
  4104     11FC  29FE               	goto	u4280
  4105     11FD                     u4281:
  4106     11FD  29DF               	goto	l4597
  4107     11FE                     u4280:
  4108     11FE                     l1130:
  4109     11FE  0008               	return
  4110     11FF                     __end_of_strcpy:
  4111                           
  4112                           	psect	text3
  4113     0411                     __ptext3:	
  4114 ;; *************** function _set_time *****************
  4115 ;; Defined at:
  4116 ;;		line 392 in file "function_definitions.c"
  4117 ;; Parameters:    Size  Location     Type
  4118 ;;  key             1    wreg     unsigned char 
  4119 ;;  reset_flag      1    3[BANK0 ] unsigned char 
  4120 ;; Auto vars:     Size  Location     Type
  4121 ;;  key             1    7[BANK0 ] unsigned char 
  4122 ;;  buffer          1    8[BANK0 ] unsigned char 
  4123 ;; Return value:  Size  Location     Type
  4124 ;;                  1    wreg      unsigned char 
  4125 ;; Registers used:
  4126 ;;		wreg, fsr0l, fsr0h, status,2, status,0, btemp+1, pclath, cstack
  4127 ;; Tracked objects:
  4128 ;;		On entry : 0/0
  4129 ;;		On exit  : 0/0
  4130 ;;		Unchanged: 0/0
  4131 ;; Data sizes:     COMMON   BANK0   BANK1   BANK3   BANK2
  4132 ;;      Params:         0       1       0       0       0
  4133 ;;      Locals:         0       2       0       0       0
  4134 ;;      Temps:          0       3       0       0       0
  4135 ;;      Totals:         0       6       0       0       0
  4136 ;;Total ram usage:        6 bytes
  4137 ;; Hardware stack levels used: 1
  4138 ;; Hardware stack levels required when called: 6
  4139 ;; This function calls:
  4140 ;;		___awdiv
  4141 ;;		___lwdiv
  4142 ;;		___lwmod
  4143 ;;		___wmul
  4144 ;;		_clcd_print
  4145 ;;		_clcd_putch
  4146 ;;		_clcd_write
  4147 ;;		_get_time
  4148 ;;		_write_ds1307
  4149 ;; This function is called by:
  4150 ;;		_main
  4151 ;; This function uses a non-reentrant model
  4152 ;;
  4153                           
  4154     0411                     _set_time:	
  4155                           ;psect for function _set_time
  4156                           
  4157                           
  4158                           ;incstack = 0
  4159                           ; Regs used in _set_time: [wreg-fsr0h+status,2+status,0+btemp+1+pclath+cstack]
  4160                           ;set_time@key stored from wreg
  4161     0411  1283               	bcf	3,5	;RP0=0, select bank0
  4162     0412  1303               	bcf	3,6	;RP1=0, select bank0
  4163     0413  00D0               	movwf	set_time@key
  4164     0414                     l4939:
  4165                           
  4166                           ;function_definitions.c: 393:     static unsigned int new_time[3];;function_definitions.
      +                          c: 394:     static unsigned int blink_pos;;function_definitions.c: 395:     static unsig
      +                          ned char wait;;function_definitions.c: 396:     static unsigned char blink;;function_def
      +                          initions.c: 397:     static char t_done = 0;;function_definitions.c: 398:     char buffe
      +                          r;;function_definitions.c: 401:     if (reset_flag == 0x30) {
  4167     0414  3030               	movlw	48
  4168     0415  064C               	xorwf	set_time@reset_flag,w
  4169     0416  1D03               	btfss	3,2
  4170     0417  2C19               	goto	u4641
  4171     0418  2C1A               	goto	u4640
  4172     0419                     u4641:
  4173     0419  2C91               	goto	l4955
  4174     041A                     u4640:
  4175     041A                     l4941:
  4176                           
  4177                           ;function_definitions.c: 403:         get_time();
  4178     041A  160A  118A  253B  120A  118A  	fcall	_get_time
  4179                           
  4180                           ;function_definitions.c: 405:         new_time[0] = (time[0] & 0x0F) * 10 + (time[1] & 0
      +                          x0F);
  4181     041F  300F               	movlw	15
  4182     0420  1283               	bcf	3,5	;RP0=0, select bank0
  4183     0421  1303               	bcf	3,6	;RP1=0, select bank0
  4184     0422  053F               	andwf	_time+1,w
  4185     0423  00CD               	movwf	??_set_time
  4186     0424  083E               	movf	_time,w
  4187     0425  390F               	andlw	15
  4188     0426  00CE               	movwf	??_set_time+1
  4189     0427  01CF               	clrf	??_set_time+2
  4190     0428  084E               	movf	??_set_time+1,w
  4191     0429  00F2               	movwf	___wmul@multiplier
  4192     042A  084F               	movf	??_set_time+2,w
  4193     042B  00F3               	movwf	___wmul@multiplier+1
  4194     042C  300A               	movlw	10
  4195     042D  00F4               	movwf	___wmul@multiplicand
  4196     042E  3000               	movlw	0
  4197     042F  00F5               	movwf	___wmul@multiplicand+1
  4198     0430  160A  118A  21FF  120A  118A  	fcall	___wmul
  4199     0435  1283               	bcf	3,5	;RP0=0, select bank0
  4200     0436  1303               	bcf	3,6	;RP1=0, select bank0
  4201     0437  084D               	movf	??_set_time,w
  4202     0438  0772               	addwf	?___wmul,w
  4203     0439  00A0               	movwf	set_time@new_time
  4204     043A  3000               	movlw	0
  4205     043B  1803               	skipnc
  4206     043C  3001               	movlw	1
  4207     043D  0773               	addwf	?___wmul+1,w
  4208     043E  00A1               	movwf	set_time@new_time+1
  4209                           
  4210                           ;function_definitions.c: 407:         new_time[1] = (time[2] & 0x0F) * 10 + (time[3] & 0
      +                          x0F);
  4211     043F  300F               	movlw	15
  4212     0440  0541               	andwf	_time+3,w
  4213     0441  00CD               	movwf	??_set_time
  4214     0442  0840               	movf	_time+2,w
  4215     0443  390F               	andlw	15
  4216     0444  00CE               	movwf	??_set_time+1
  4217     0445  01CF               	clrf	??_set_time+2
  4218     0446  084E               	movf	??_set_time+1,w
  4219     0447  00F2               	movwf	___wmul@multiplier
  4220     0448  084F               	movf	??_set_time+2,w
  4221     0449  00F3               	movwf	___wmul@multiplier+1
  4222     044A  300A               	movlw	10
  4223     044B  00F4               	movwf	___wmul@multiplicand
  4224     044C  3000               	movlw	0
  4225     044D  00F5               	movwf	___wmul@multiplicand+1
  4226     044E  160A  118A  21FF  120A  118A  	fcall	___wmul
  4227     0453  1283               	bcf	3,5	;RP0=0, select bank0
  4228     0454  1303               	bcf	3,6	;RP1=0, select bank0
  4229     0455  084D               	movf	??_set_time,w
  4230     0456  0772               	addwf	?___wmul,w
  4231     0457  00A2               	movwf	set_time@new_time+2
  4232     0458  3000               	movlw	0
  4233     0459  1803               	skipnc
  4234     045A  3001               	movlw	1
  4235     045B  0773               	addwf	?___wmul+1,w
  4236     045C  00A3               	movwf	set_time@new_time+3
  4237                           
  4238                           ;function_definitions.c: 409:         new_time[2] = (time[4] & 0x0F) * 10 + (time[5] & 0
      +                          x0F);
  4239     045D  300F               	movlw	15
  4240     045E  0543               	andwf	_time+5,w
  4241     045F  00CD               	movwf	??_set_time
  4242     0460  0842               	movf	_time+4,w
  4243     0461  390F               	andlw	15
  4244     0462  00CE               	movwf	??_set_time+1
  4245     0463  01CF               	clrf	??_set_time+2
  4246     0464  084E               	movf	??_set_time+1,w
  4247     0465  00F2               	movwf	___wmul@multiplier
  4248     0466  084F               	movf	??_set_time+2,w
  4249     0467  00F3               	movwf	___wmul@multiplier+1
  4250     0468  300A               	movlw	10
  4251     0469  00F4               	movwf	___wmul@multiplicand
  4252     046A  3000               	movlw	0
  4253     046B  00F5               	movwf	___wmul@multiplicand+1
  4254     046C  160A  118A  21FF  120A  118A  	fcall	___wmul
  4255     0471  1283               	bcf	3,5	;RP0=0, select bank0
  4256     0472  1303               	bcf	3,6	;RP1=0, select bank0
  4257     0473  084D               	movf	??_set_time,w
  4258     0474  0772               	addwf	?___wmul,w
  4259     0475  00A4               	movwf	set_time@new_time+4
  4260     0476  3000               	movlw	0
  4261     0477  1803               	skipnc
  4262     0478  3001               	movlw	1
  4263     0479  0773               	addwf	?___wmul+1,w
  4264     047A  00A5               	movwf	set_time@new_time+5
  4265     047B                     l4943:
  4266                           
  4267                           ;function_definitions.c: 411:         clcd_print("Time (HH:MM:SS)", (0x80 + 0));
  4268     047B  309D               	movlw	low (STR_41| (0+32768))
  4269     047C  00F6               	movwf	clcd_print@str
  4270     047D  3087               	movlw	high (STR_41| (0+32768))
  4271     047E  00F7               	movwf	clcd_print@str+1
  4272     047F  3080               	movlw	128
  4273     0480  00F8               	movwf	clcd_print@addr
  4274     0481  160A  118A  22F8  120A  118A  	fcall	_clcd_print
  4275     0486                     l4945:
  4276                           
  4277                           ;function_definitions.c: 414:         blink_pos = 2;
  4278     0486  3002               	movlw	2
  4279     0487  1283               	bcf	3,5	;RP0=0, select bank0
  4280     0488  1303               	bcf	3,6	;RP1=0, select bank0
  4281     0489  00AF               	movwf	set_time@blink_pos
  4282     048A  3000               	movlw	0
  4283     048B  00B0               	movwf	set_time@blink_pos+1
  4284     048C                     l4947:
  4285                           
  4286                           ;function_definitions.c: 415:         wait = 0;
  4287     048C  01B7               	clrf	set_time@wait
  4288     048D                     l4949:
  4289                           
  4290                           ;function_definitions.c: 416:         blink = 0;
  4291     048D  01B6               	clrf	set_time@blink
  4292     048E                     l4951:
  4293                           
  4294                           ;function_definitions.c: 417:         t_done = 0;
  4295     048E  01B5               	clrf	set_time@t_done
  4296     048F                     l4953:
  4297                           
  4298                           ;function_definitions.c: 418:         key = 0x3F;
  4299     048F  303F               	movlw	63
  4300     0490  00D0               	movwf	set_time@key
  4301     0491                     l4955:
  4302                           
  4303                           ;function_definitions.c: 422:     if (t_done)
  4304     0491  0835               	movf	set_time@t_done,w
  4305     0492  1903               	btfsc	3,2
  4306     0493  2C95               	goto	u4651
  4307     0494  2C96               	goto	u4650
  4308     0495                     u4651:
  4309     0495  2DA7               	goto	l4999
  4310     0496                     u4650:
  4311     0496                     l4957:
  4312                           
  4313                           ;function_definitions.c: 423:         return 0x22;
  4314     0496  3022               	movlw	34
  4315     0497  2EDD               	goto	l434
  4316     0498                     l4961:
  4317                           
  4318                           ;function_definitions.c: 429:             new_time[blink_pos]++;
  4319     0498  082F               	movf	set_time@blink_pos,w
  4320     0499  00CD               	movwf	??_set_time
  4321     049A  074D               	addwf	??_set_time,w
  4322     049B  3E20               	addlw	(low (set_time@new_time| 0))& (0+255)
  4323     049C  0084               	movwf	4
  4324     049D  3001               	movlw	1
  4325     049E  1383               	bcf	3,7	;select IRP bank0
  4326     049F  0780               	addwf	0,f
  4327     04A0  0A84               	incf	4,f
  4328     04A1  1803               	skipnc
  4329     04A2  0A80               	incf	0,f
  4330                           
  4331                           ;function_definitions.c: 430:             break;
  4332     04A3  2DB2               	goto	l5001
  4333     04A4                     l4963:
  4334                           
  4335                           ;function_definitions.c: 433:             blink_pos = (blink_pos + 1) % 3;
  4336     04A4  3003               	movlw	3
  4337     04A5  00F2               	movwf	___lwmod@divisor
  4338     04A6  3000               	movlw	0
  4339     04A7  00F3               	movwf	___lwmod@divisor+1
  4340     04A8  082F               	movf	set_time@blink_pos,w
  4341     04A9  3E01               	addlw	1
  4342     04AA  00F4               	movwf	___lwmod@dividend
  4343     04AB  0830               	movf	set_time@blink_pos+1,w
  4344     04AC  1803               	skipnc
  4345     04AD  3E01               	addlw	1
  4346     04AE  3E00               	addlw	0
  4347     04AF  00F5               	movwf	___lwmod@dividend+1
  4348     04B0  160A  118A  23F1  120A  118A  	fcall	___lwmod
  4349     04B5  0873               	movf	?___lwmod+1,w
  4350     04B6  1283               	bcf	3,5	;RP0=0, select bank0
  4351     04B7  1303               	bcf	3,6	;RP1=0, select bank0
  4352     04B8  00B0               	movwf	set_time@blink_pos+1
  4353     04B9  0872               	movf	?___lwmod,w
  4354     04BA  00AF               	movwf	set_time@blink_pos
  4355                           
  4356                           ;function_definitions.c: 434:             break;
  4357     04BB  2DB2               	goto	l5001
  4358     04BC                     l4965:
  4359                           
  4360                           ;function_definitions.c: 438:             get_time();
  4361     04BC  160A  118A  253B  120A  118A  	fcall	_get_time
  4362     04C1                     l4967:
  4363                           
  4364                           ;function_definitions.c: 440:             buffer = (char) (((new_time[0] / 10) << 4) | n
      +                          ew_time[0] % 10);
  4365     04C1  300A               	movlw	10
  4366     04C2  00F2               	movwf	___lwmod@divisor
  4367     04C3  3000               	movlw	0
  4368     04C4  00F3               	movwf	___lwmod@divisor+1
  4369     04C5  1283               	bcf	3,5	;RP0=0, select bank0
  4370     04C6  1303               	bcf	3,6	;RP1=0, select bank0
  4371     04C7  0821               	movf	set_time@new_time+1,w
  4372     04C8  00F5               	movwf	___lwmod@dividend+1
  4373     04C9  0820               	movf	set_time@new_time,w
  4374     04CA  00F4               	movwf	___lwmod@dividend
  4375     04CB  160A  118A  23F1  120A  118A  	fcall	___lwmod
  4376     04D0  0872               	movf	?___lwmod,w
  4377     04D1  1283               	bcf	3,5	;RP0=0, select bank0
  4378     04D2  1303               	bcf	3,6	;RP1=0, select bank0
  4379     04D3  00CD               	movwf	??_set_time
  4380     04D4  0873               	movf	?___lwmod+1,w
  4381     04D5  00CE               	movwf	??_set_time+1
  4382     04D6  300A               	movlw	10
  4383     04D7  00F6               	movwf	___lwdiv@divisor
  4384     04D8  3000               	movlw	0
  4385     04D9  00F7               	movwf	___lwdiv@divisor+1
  4386     04DA  0821               	movf	set_time@new_time+1,w
  4387     04DB  00F9               	movwf	___lwdiv@dividend+1
  4388     04DC  0820               	movf	set_time@new_time,w
  4389     04DD  00F8               	movwf	___lwdiv@dividend
  4390     04DE  160A  118A  24AD  120A  118A  	fcall	___lwdiv
  4391     04E3  0876               	movf	?___lwdiv,w
  4392     04E4  1283               	bcf	3,5	;RP0=0, select bank0
  4393     04E5  1303               	bcf	3,6	;RP1=0, select bank0
  4394     04E6  00CF               	movwf	??_set_time+2
  4395     04E7  3003               	movlw	3
  4396     04E8                     u4665:
  4397     04E8  1003               	clrc
  4398     04E9  0DCF               	rlf	??_set_time+2,f
  4399     04EA  3EFF               	addlw	-1
  4400     04EB  1D03               	skipz
  4401     04EC  2CE8               	goto	u4665
  4402     04ED  1003               	clrc
  4403     04EE  0D4F               	rlf	??_set_time+2,w
  4404     04EF  044D               	iorwf	??_set_time,w
  4405     04F0  00D1               	movwf	set_time@buffer
  4406     04F1                     l4969:
  4407                           
  4408                           ;function_definitions.c: 441:             clock_reg[0] = (clock_reg[0] & 0xC0) | buffer;
  4409     04F1  0826               	movf	_clock_reg,w
  4410     04F2  39C0               	andlw	192
  4411     04F3  0451               	iorwf	set_time@buffer,w
  4412     04F4  00A6               	movwf	_clock_reg
  4413     04F5                     l4971:
  4414                           
  4415                           ;function_definitions.c: 443:             write_ds1307(0x02, clock_reg[0]);
  4416     04F5  0826               	movf	_clock_reg,w
  4417     04F6  00F3               	movwf	write_ds1307@data
  4418     04F7  3002               	movlw	2
  4419     04F8  160A  118A  21A0  120A  118A  	fcall	_write_ds1307
  4420     04FD                     l4973:
  4421                           
  4422                           ;function_definitions.c: 446:             buffer = (char) (((new_time[1] / 10) << 4) | n
      +                          ew_time[1] % 10);
  4423     04FD  300A               	movlw	10
  4424     04FE  00F2               	movwf	___lwmod@divisor
  4425     04FF  3000               	movlw	0
  4426     0500  00F3               	movwf	___lwmod@divisor+1
  4427     0501  1283               	bcf	3,5	;RP0=0, select bank0
  4428     0502  1303               	bcf	3,6	;RP1=0, select bank0
  4429     0503  0823               	movf	set_time@new_time+3,w
  4430     0504  00F5               	movwf	___lwmod@dividend+1
  4431     0505  0822               	movf	set_time@new_time+2,w
  4432     0506  00F4               	movwf	___lwmod@dividend
  4433     0507  160A  118A  23F1  120A  118A  	fcall	___lwmod
  4434     050C  0872               	movf	?___lwmod,w
  4435     050D  1283               	bcf	3,5	;RP0=0, select bank0
  4436     050E  1303               	bcf	3,6	;RP1=0, select bank0
  4437     050F  00CD               	movwf	??_set_time
  4438     0510  0873               	movf	?___lwmod+1,w
  4439     0511  00CE               	movwf	??_set_time+1
  4440     0512  300A               	movlw	10
  4441     0513  00F6               	movwf	___lwdiv@divisor
  4442     0514  3000               	movlw	0
  4443     0515  00F7               	movwf	___lwdiv@divisor+1
  4444     0516  0823               	movf	set_time@new_time+3,w
  4445     0517  00F9               	movwf	___lwdiv@dividend+1
  4446     0518  0822               	movf	set_time@new_time+2,w
  4447     0519  00F8               	movwf	___lwdiv@dividend
  4448     051A  160A  118A  24AD  120A  118A  	fcall	___lwdiv
  4449     051F  0876               	movf	?___lwdiv,w
  4450     0520  1283               	bcf	3,5	;RP0=0, select bank0
  4451     0521  1303               	bcf	3,6	;RP1=0, select bank0
  4452     0522  00CF               	movwf	??_set_time+2
  4453     0523  3003               	movlw	3
  4454     0524                     u4675:
  4455     0524  1003               	clrc
  4456     0525  0DCF               	rlf	??_set_time+2,f
  4457     0526  3EFF               	addlw	-1
  4458     0527  1D03               	skipz
  4459     0528  2D24               	goto	u4675
  4460     0529  1003               	clrc
  4461     052A  0D4F               	rlf	??_set_time+2,w
  4462     052B  044D               	iorwf	??_set_time,w
  4463     052C  00D1               	movwf	set_time@buffer
  4464                           
  4465                           ;function_definitions.c: 447:             clock_reg[1] = (clock_reg[1] & 0x80) | buffer;
  4466     052D  0827               	movf	_clock_reg+1,w
  4467     052E  3980               	andlw	128
  4468     052F  0451               	iorwf	set_time@buffer,w
  4469     0530  00A7               	movwf	_clock_reg+1
  4470     0531                     l4975:
  4471                           
  4472                           ;function_definitions.c: 448:             write_ds1307(0x01, clock_reg[1]);
  4473     0531  0827               	movf	_clock_reg+1,w
  4474     0532  00F3               	movwf	write_ds1307@data
  4475     0533  3001               	movlw	1
  4476     0534  160A  118A  21A0  120A  118A  	fcall	_write_ds1307
  4477     0539                     l4977:
  4478                           
  4479                           ;function_definitions.c: 451:             buffer = (char) (((new_time[2] / 10) << 4) | n
      +                          ew_time[2] % 10);
  4480     0539  300A               	movlw	10
  4481     053A  00F2               	movwf	___lwmod@divisor
  4482     053B  3000               	movlw	0
  4483     053C  00F3               	movwf	___lwmod@divisor+1
  4484     053D  1283               	bcf	3,5	;RP0=0, select bank0
  4485     053E  1303               	bcf	3,6	;RP1=0, select bank0
  4486     053F  0825               	movf	set_time@new_time+5,w
  4487     0540  00F5               	movwf	___lwmod@dividend+1
  4488     0541  0824               	movf	set_time@new_time+4,w
  4489     0542  00F4               	movwf	___lwmod@dividend
  4490     0543  160A  118A  23F1  120A  118A  	fcall	___lwmod
  4491     0548  0872               	movf	?___lwmod,w
  4492     0549  1283               	bcf	3,5	;RP0=0, select bank0
  4493     054A  1303               	bcf	3,6	;RP1=0, select bank0
  4494     054B  00CD               	movwf	??_set_time
  4495     054C  0873               	movf	?___lwmod+1,w
  4496     054D  00CE               	movwf	??_set_time+1
  4497     054E  300A               	movlw	10
  4498     054F  00F6               	movwf	___lwdiv@divisor
  4499     0550  3000               	movlw	0
  4500     0551  00F7               	movwf	___lwdiv@divisor+1
  4501     0552  0825               	movf	set_time@new_time+5,w
  4502     0553  00F9               	movwf	___lwdiv@dividend+1
  4503     0554  0824               	movf	set_time@new_time+4,w
  4504     0555  00F8               	movwf	___lwdiv@dividend
  4505     0556  160A  118A  24AD  120A  118A  	fcall	___lwdiv
  4506     055B  0876               	movf	?___lwdiv,w
  4507     055C  1283               	bcf	3,5	;RP0=0, select bank0
  4508     055D  1303               	bcf	3,6	;RP1=0, select bank0
  4509     055E  00CF               	movwf	??_set_time+2
  4510     055F  3003               	movlw	3
  4511     0560                     u4685:
  4512     0560  1003               	clrc
  4513     0561  0DCF               	rlf	??_set_time+2,f
  4514     0562  3EFF               	addlw	-1
  4515     0563  1D03               	skipz
  4516     0564  2D60               	goto	u4685
  4517     0565  1003               	clrc
  4518     0566  0D4F               	rlf	??_set_time+2,w
  4519     0567  044D               	iorwf	??_set_time,w
  4520     0568  00D1               	movwf	set_time@buffer
  4521     0569                     l4979:
  4522                           
  4523                           ;function_definitions.c: 452:             clock_reg[2] = (clock_reg[2] & 0x80) | buffer;
  4524     0569  0828               	movf	_clock_reg+2,w
  4525     056A  3980               	andlw	128
  4526     056B  0451               	iorwf	set_time@buffer,w
  4527     056C  00A8               	movwf	_clock_reg+2
  4528     056D                     l4981:
  4529                           
  4530                           ;function_definitions.c: 453:             write_ds1307(0x00, clock_reg[2]);
  4531     056D  0828               	movf	_clock_reg+2,w
  4532     056E  00F3               	movwf	write_ds1307@data
  4533     056F  3000               	movlw	0
  4534     0570  160A  118A  21A0  120A  118A  	fcall	_write_ds1307
  4535     0575                     l4983:
  4536                           
  4537                           ;function_definitions.c: 456:             clcd_write(0x01, 0);
  4538     0575  01F2               	clrf	clcd_write@mode
  4539     0576  3001               	movlw	1
  4540     0577  160A  118A  23BB  120A  118A  	fcall	_clcd_write
  4541     057C                     l4985:
  4542                           
  4543                           ;function_definitions.c: 458:             clcd_print("Time changed", (0x80 + 2));
  4544     057C  3024               	movlw	low (STR_42| (0+32768))
  4545     057D  00F6               	movwf	clcd_print@str
  4546     057E  3088               	movlw	high (STR_42| (0+32768))
  4547     057F  00F7               	movwf	clcd_print@str+1
  4548     0580  3082               	movlw	130
  4549     0581  00F8               	movwf	clcd_print@addr
  4550     0582  160A  118A  22F8  120A  118A  	fcall	_clcd_print
  4551     0587                     l4987:
  4552                           
  4553                           ;function_definitions.c: 459:             clcd_print("Successfully", (0xC0 + 2));
  4554     0587  304B               	movlw	low (STR_43| (0+32768))
  4555     0588  00F6               	movwf	clcd_print@str
  4556     0589  3088               	movlw	high (STR_43| (0+32768))
  4557     058A  00F7               	movwf	clcd_print@str+1
  4558     058B  30C2               	movlw	194
  4559     058C  00F8               	movwf	clcd_print@addr
  4560     058D  160A  118A  22F8  120A  118A  	fcall	_clcd_print
  4561     0592                     l4989:
  4562                           
  4563                           ;function_definitions.c: 461:             t_done = 1;
  4564     0592  1283               	bcf	3,5	;RP0=0, select bank0
  4565     0593  1303               	bcf	3,6	;RP1=0, select bank0
  4566     0594  01B5               	clrf	set_time@t_done
  4567     0595  0AB5               	incf	set_time@t_done,f
  4568     0596                     l4991:
  4569                           
  4570                           ;function_definitions.c: 463:             _delay((unsigned long)((1000)*(20000000/4000.0
      +                          )));
  4571     0596  301A               	movlw	26
  4572     0597  1283               	bcf	3,5	;RP0=0, select bank0
  4573     0598  1303               	bcf	3,6	;RP1=0, select bank0
  4574     0599  00CF               	movwf	??_set_time+2
  4575     059A  305E               	movlw	94
  4576     059B  00CE               	movwf	??_set_time+1
  4577     059C  306D               	movlw	109
  4578     059D  00CD               	movwf	??_set_time
  4579     059E                     u5197:
  4580     059E  0BCD               	decfsz	??_set_time,f
  4581     059F  2D9E               	goto	u5197
  4582     05A0  0BCE               	decfsz	??_set_time+1,f
  4583     05A1  2D9E               	goto	u5197
  4584     05A2  0BCF               	decfsz	??_set_time+2,f
  4585     05A3  2D9E               	goto	u5197
  4586     05A4  2DA5               	nop2
  4587     05A5                     l4993:
  4588                           
  4589                           ;function_definitions.c: 465:             return 0x11;
  4590     05A5  3011               	movlw	17
  4591     05A6  2EDD               	goto	l434
  4592     05A7                     l4999:
  4593     05A7  0850               	movf	set_time@key,w
  4594                           
  4595                           ; Switch size 1, requested type "simple"
  4596                           ; Number of cases is 3, Range of values is 47 to 128
  4597                           ; switch strategies available:
  4598                           ; Name         Instructions Cycles
  4599                           ; simple_byte           10     6 (average)
  4600                           ; direct_byte          257    11 (fixed)
  4601                           ; jumptable            263     9 (fixed)
  4602                           ;	Chosen strategy is simple_byte
  4603     05A8  3A2F               	xorlw	47	; case 47
  4604     05A9  1903               	skipnz
  4605     05AA  2CA4               	goto	l4963
  4606     05AB  3A18               	xorlw	24	; case 55
  4607     05AC  1903               	skipnz
  4608     05AD  2C98               	goto	l4961
  4609     05AE  3AB7               	xorlw	183	; case 128
  4610     05AF  1903               	skipnz
  4611     05B0  2CBC               	goto	l4965
  4612     05B1  2DB2               	goto	l5001
  4613     05B2                     l5001:
  4614                           
  4615                           ;function_definitions.c: 469:     if (new_time[0] > 23)
  4616     05B2  3000               	movlw	0
  4617     05B3  0221               	subwf	set_time@new_time+1,w
  4618     05B4  3018               	movlw	24
  4619     05B5  1903               	skipnz
  4620     05B6  0220               	subwf	set_time@new_time,w
  4621     05B7  1C03               	skipc
  4622     05B8  2DBA               	goto	u4691
  4623     05B9  2DBB               	goto	u4690
  4624     05BA                     u4691:
  4625     05BA  2DBD               	goto	l5005
  4626     05BB                     u4690:
  4627     05BB                     l5003:
  4628                           
  4629                           ;function_definitions.c: 470:         new_time[0] = 0;
  4630     05BB  01A0               	clrf	set_time@new_time
  4631     05BC  01A1               	clrf	set_time@new_time+1
  4632     05BD                     l5005:
  4633                           
  4634                           ;function_definitions.c: 471:     if (new_time[1] > 59)
  4635     05BD  3000               	movlw	0
  4636     05BE  0223               	subwf	set_time@new_time+3,w
  4637     05BF  303C               	movlw	60
  4638     05C0  1903               	skipnz
  4639     05C1  0222               	subwf	set_time@new_time+2,w
  4640     05C2  1C03               	skipc
  4641     05C3  2DC5               	goto	u4701
  4642     05C4  2DC6               	goto	u4700
  4643     05C5                     u4701:
  4644     05C5  2DC8               	goto	l5009
  4645     05C6                     u4700:
  4646     05C6                     l5007:
  4647                           
  4648                           ;function_definitions.c: 472:         new_time[1] = 0;
  4649     05C6  01A2               	clrf	set_time@new_time+2
  4650     05C7  01A3               	clrf	set_time@new_time+3
  4651     05C8                     l5009:
  4652                           
  4653                           ;function_definitions.c: 473:     if (new_time[2] > 59)
  4654     05C8  3000               	movlw	0
  4655     05C9  0225               	subwf	set_time@new_time+5,w
  4656     05CA  303C               	movlw	60
  4657     05CB  1903               	skipnz
  4658     05CC  0224               	subwf	set_time@new_time+4,w
  4659     05CD  1C03               	skipc
  4660     05CE  2DD0               	goto	u4711
  4661     05CF  2DD1               	goto	u4710
  4662     05D0                     u4711:
  4663     05D0  2DD3               	goto	l5013
  4664     05D1                     u4710:
  4665     05D1                     l5011:
  4666                           
  4667                           ;function_definitions.c: 474:         new_time[2] = 0;
  4668     05D1  01A4               	clrf	set_time@new_time+4
  4669     05D2  01A5               	clrf	set_time@new_time+5
  4670     05D3                     l5013:
  4671                           
  4672                           ;function_definitions.c: 477:     if (wait++ == 1) {
  4673     05D3  3001               	movlw	1
  4674     05D4  00FF               	movwf	btemp+1
  4675     05D5  087F               	movf	btemp+1,w
  4676     05D6  07B7               	addwf	set_time@wait,f
  4677     05D7  3002               	movlw	2
  4678     05D8  0637               	xorwf	set_time@wait,w
  4679     05D9  1D03               	btfss	3,2
  4680     05DA  2DDC               	goto	u4721
  4681     05DB  2DDD               	goto	u4720
  4682     05DC                     u4721:
  4683     05DC  2E2F               	goto	l5039
  4684     05DD                     u4720:
  4685     05DD                     l5015:
  4686                           
  4687                           ;function_definitions.c: 478:         wait = 0;
  4688     05DD  01B7               	clrf	set_time@wait
  4689     05DE                     l5017:
  4690                           
  4691                           ;function_definitions.c: 479:         blink = !blink;
  4692     05DE  0836               	movf	set_time@blink,w
  4693     05DF  1903               	btfsc	3,2
  4694     05E0  2DE2               	goto	u4731
  4695     05E1  2DE4               	goto	u4730
  4696     05E2                     u4731:
  4697     05E2  3001               	movlw	1
  4698     05E3  2DE5               	goto	u4740
  4699     05E4                     u4730:
  4700     05E4  3000               	movlw	0
  4701     05E5                     u4740:
  4702     05E5  00B6               	movwf	set_time@blink
  4703     05E6                     l5019:
  4704                           
  4705                           ;function_definitions.c: 482:         if (blink) {
  4706     05E6  0836               	movf	set_time@blink,w
  4707     05E7  1903               	btfsc	3,2
  4708     05E8  2DEA               	goto	u4751
  4709     05E9  2DEB               	goto	u4750
  4710     05EA                     u4751:
  4711     05EA  2E2F               	goto	l5039
  4712     05EB                     u4750:
  4713     05EB  2E1F               	goto	l5037
  4714     05EC                     l5023:
  4715                           
  4716                           ;function_definitions.c: 486:                     clcd_print("  ", (0xC0 + 0));
  4717     05EC  3079               	movlw	low ((STR_40+8)| (0+32768))
  4718     05ED  00F6               	movwf	clcd_print@str
  4719     05EE  3088               	movlw	high ((STR_40+8)| (0+32768))
  4720     05EF  00F7               	movwf	clcd_print@str+1
  4721     05F0  30C0               	movlw	192
  4722     05F1  00F8               	movwf	clcd_print@addr
  4723     05F2  160A  118A  22F8  120A  118A  	fcall	_clcd_print
  4724     05F7                     l5025:
  4725                           
  4726                           ;function_definitions.c: 487:                     _delay((unsigned long)((160)*(20000000
      +                          /4000.0)));
  4727     05F7  3005               	movlw	5
  4728     05F8  1283               	bcf	3,5	;RP0=0, select bank0
  4729     05F9  1303               	bcf	3,6	;RP1=0, select bank0
  4730     05FA  00CF               	movwf	??_set_time+2
  4731     05FB  300F               	movlw	15
  4732     05FC  00CE               	movwf	??_set_time+1
  4733     05FD  30F0               	movlw	240
  4734     05FE  00CD               	movwf	??_set_time
  4735     05FF                     u5207:
  4736     05FF  0BCD               	decfsz	??_set_time,f
  4737     0600  2DFF               	goto	u5207
  4738     0601  0BCE               	decfsz	??_set_time+1,f
  4739     0602  2DFF               	goto	u5207
  4740     0603  0BCF               	decfsz	??_set_time+2,f
  4741     0604  2DFF               	goto	u5207
  4742     0605  0000               	nop
  4743                           
  4744                           ;function_definitions.c: 488:                     break;
  4745     0606  2E2F               	goto	l5039
  4746     0607                     l5027:
  4747                           
  4748                           ;function_definitions.c: 491:                     clcd_print("  ", (0xC0 + 3));
  4749     0607  3079               	movlw	low ((STR_40+8)| (0+32768))
  4750     0608  00F6               	movwf	clcd_print@str
  4751     0609  3088               	movlw	high ((STR_40+8)| (0+32768))
  4752     060A  00F7               	movwf	clcd_print@str+1
  4753     060B  30C3               	movlw	195
  4754     060C  00F8               	movwf	clcd_print@addr
  4755     060D  160A  118A  22F8  120A  118A  	fcall	_clcd_print
  4756     0612  2DF7               	goto	l5025
  4757     0613                     l5031:
  4758                           
  4759                           ;function_definitions.c: 496:                     clcd_print("  ", (0xC0 + 6));
  4760     0613  3079               	movlw	low ((STR_40+8)| (0+32768))
  4761     0614  00F6               	movwf	clcd_print@str
  4762     0615  3088               	movlw	high ((STR_40+8)| (0+32768))
  4763     0616  00F7               	movwf	clcd_print@str+1
  4764     0617  30C6               	movlw	198
  4765     0618  00F8               	movwf	clcd_print@addr
  4766     0619  160A  118A  22F8  120A  118A  	fcall	_clcd_print
  4767     061E  2DF7               	goto	l5025
  4768     061F                     l5037:
  4769                           
  4770                           ; Switch on 2 bytes has been partitioned into a top level switch of size 1, and 1 sub-sw
      +                          itches
  4771                           ; Switch size 1, requested type "simple"
  4772                           ; Number of cases is 1, Range of values is 0 to 0
  4773                           ; switch strategies available:
  4774                           ; Name         Instructions Cycles
  4775                           ; simple_byte            4     3 (average)
  4776                           ; direct_byte           11     8 (fixed)
  4777                           ; jumptable            260     6 (fixed)
  4778                           ;	Chosen strategy is simple_byte
  4779     061F  0830               	movf	set_time@blink_pos+1,w
  4780     0620  3A00               	xorlw	0	; case 0
  4781     0621  1903               	skipnz
  4782     0622  2E24               	goto	l5497
  4783     0623  2E2F               	goto	l5039
  4784     0624                     l5497:
  4785                           
  4786                           ; Switch size 1, requested type "simple"
  4787                           ; Number of cases is 3, Range of values is 0 to 2
  4788                           ; switch strategies available:
  4789                           ; Name         Instructions Cycles
  4790                           ; simple_byte           10     6 (average)
  4791                           ; direct_byte           17     8 (fixed)
  4792                           ; jumptable            260     6 (fixed)
  4793                           ;	Chosen strategy is simple_byte
  4794     0624  082F               	movf	set_time@blink_pos,w
  4795     0625  3A00               	xorlw	0	; case 0
  4796     0626  1903               	skipnz
  4797     0627  2DEC               	goto	l5023
  4798     0628  3A01               	xorlw	1	; case 1
  4799     0629  1903               	skipnz
  4800     062A  2E07               	goto	l5027
  4801     062B  3A03               	xorlw	3	; case 2
  4802     062C  1903               	skipnz
  4803     062D  2E13               	goto	l5031
  4804     062E  2E2F               	goto	l5039
  4805     062F                     l5039:
  4806                           
  4807                           ;function_definitions.c: 504:     clcd_putch((char) new_time[0] / 10 + '0', (0xC0 + 0));
  4808     062F  30C0               	movlw	192
  4809     0630  1283               	bcf	3,5	;RP0=0, select bank0
  4810     0631  1303               	bcf	3,6	;RP1=0, select bank0
  4811     0632  00C9               	movwf	clcd_putch@addr
  4812     0633  300A               	movlw	10
  4813     0634  00F2               	movwf	___awdiv@divisor
  4814     0635  3000               	movlw	0
  4815     0636  00F3               	movwf	___awdiv@divisor+1
  4816     0637  0820               	movf	set_time@new_time,w
  4817     0638  00CD               	movwf	??_set_time
  4818     0639  01CE               	clrf	??_set_time+1
  4819     063A  084D               	movf	??_set_time,w
  4820     063B  00F4               	movwf	___awdiv@dividend
  4821     063C  084E               	movf	??_set_time+1,w
  4822     063D  00F5               	movwf	___awdiv@dividend+1
  4823     063E  160A  118A  2799  120A  118A  	fcall	___awdiv
  4824     0643  0872               	movf	?___awdiv,w
  4825     0644  3E30               	addlw	48
  4826     0645  160A  118A  215D  120A  118A  	fcall	_clcd_putch
  4827                           
  4828                           ;function_definitions.c: 505:     clcd_putch(new_time[0] % 10 + '0', (0xC0 + 1));
  4829     064A  30C1               	movlw	193
  4830     064B  1283               	bcf	3,5	;RP0=0, select bank0
  4831     064C  1303               	bcf	3,6	;RP1=0, select bank0
  4832     064D  00C9               	movwf	clcd_putch@addr
  4833     064E  300A               	movlw	10
  4834     064F  00F2               	movwf	___lwmod@divisor
  4835     0650  3000               	movlw	0
  4836     0651  00F3               	movwf	___lwmod@divisor+1
  4837     0652  0821               	movf	set_time@new_time+1,w
  4838     0653  00F5               	movwf	___lwmod@dividend+1
  4839     0654  0820               	movf	set_time@new_time,w
  4840     0655  00F4               	movwf	___lwmod@dividend
  4841     0656  160A  118A  23F1  120A  118A  	fcall	___lwmod
  4842     065B  0872               	movf	?___lwmod,w
  4843     065C  3E30               	addlw	48
  4844     065D  160A  118A  215D  120A  118A  	fcall	_clcd_putch
  4845     0662                     l5041:
  4846                           
  4847                           ;function_definitions.c: 506:     clcd_putch(':', (0xC0 + 2));
  4848     0662  30C2               	movlw	194
  4849     0663  1283               	bcf	3,5	;RP0=0, select bank0
  4850     0664  1303               	bcf	3,6	;RP1=0, select bank0
  4851     0665  00C9               	movwf	clcd_putch@addr
  4852     0666  303A               	movlw	58
  4853     0667  160A  118A  215D  120A  118A  	fcall	_clcd_putch
  4854     066C                     l5043:
  4855                           
  4856                           ;function_definitions.c: 509:     clcd_putch((char) new_time[1] / 10 + '0', (0xC0 + 3));
  4857     066C  30C3               	movlw	195
  4858     066D  1283               	bcf	3,5	;RP0=0, select bank0
  4859     066E  1303               	bcf	3,6	;RP1=0, select bank0
  4860     066F  00C9               	movwf	clcd_putch@addr
  4861     0670  300A               	movlw	10
  4862     0671  00F2               	movwf	___awdiv@divisor
  4863     0672  3000               	movlw	0
  4864     0673  00F3               	movwf	___awdiv@divisor+1
  4865     0674  0822               	movf	set_time@new_time+2,w
  4866     0675  00CD               	movwf	??_set_time
  4867     0676  01CE               	clrf	??_set_time+1
  4868     0677  084D               	movf	??_set_time,w
  4869     0678  00F4               	movwf	___awdiv@dividend
  4870     0679  084E               	movf	??_set_time+1,w
  4871     067A  00F5               	movwf	___awdiv@dividend+1
  4872     067B  160A  118A  2799  120A  118A  	fcall	___awdiv
  4873     0680  0872               	movf	?___awdiv,w
  4874     0681  3E30               	addlw	48
  4875     0682  160A  118A  215D  120A  118A  	fcall	_clcd_putch
  4876     0687                     l5045:
  4877                           
  4878                           ;function_definitions.c: 510:     clcd_putch(new_time[1] % 10 + '0', (0xC0 + 4));
  4879     0687  30C4               	movlw	196
  4880     0688  1283               	bcf	3,5	;RP0=0, select bank0
  4881     0689  1303               	bcf	3,6	;RP1=0, select bank0
  4882     068A  00C9               	movwf	clcd_putch@addr
  4883     068B  300A               	movlw	10
  4884     068C  00F2               	movwf	___lwmod@divisor
  4885     068D  3000               	movlw	0
  4886     068E  00F3               	movwf	___lwmod@divisor+1
  4887     068F  0823               	movf	set_time@new_time+3,w
  4888     0690  00F5               	movwf	___lwmod@dividend+1
  4889     0691  0822               	movf	set_time@new_time+2,w
  4890     0692  00F4               	movwf	___lwmod@dividend
  4891     0693  160A  118A  23F1  120A  118A  	fcall	___lwmod
  4892     0698  0872               	movf	?___lwmod,w
  4893     0699  3E30               	addlw	48
  4894     069A  160A  118A  215D  120A  118A  	fcall	_clcd_putch
  4895     069F                     l5047:
  4896                           
  4897                           ;function_definitions.c: 511:     clcd_putch(':', (0xC0 + 5));
  4898     069F  30C5               	movlw	197
  4899     06A0  1283               	bcf	3,5	;RP0=0, select bank0
  4900     06A1  1303               	bcf	3,6	;RP1=0, select bank0
  4901     06A2  00C9               	movwf	clcd_putch@addr
  4902     06A3  303A               	movlw	58
  4903     06A4  160A  118A  215D  120A  118A  	fcall	_clcd_putch
  4904                           
  4905                           ;function_definitions.c: 514:     clcd_putch((char) new_time[2] / 10 + '0', (0xC0 + 6));
  4906     06A9  30C6               	movlw	198
  4907     06AA  1283               	bcf	3,5	;RP0=0, select bank0
  4908     06AB  1303               	bcf	3,6	;RP1=0, select bank0
  4909     06AC  00C9               	movwf	clcd_putch@addr
  4910     06AD  300A               	movlw	10
  4911     06AE  00F2               	movwf	___awdiv@divisor
  4912     06AF  3000               	movlw	0
  4913     06B0  00F3               	movwf	___awdiv@divisor+1
  4914     06B1  0824               	movf	set_time@new_time+4,w
  4915     06B2  00CD               	movwf	??_set_time
  4916     06B3  01CE               	clrf	??_set_time+1
  4917     06B4  084D               	movf	??_set_time,w
  4918     06B5  00F4               	movwf	___awdiv@dividend
  4919     06B6  084E               	movf	??_set_time+1,w
  4920     06B7  00F5               	movwf	___awdiv@dividend+1
  4921     06B8  160A  118A  2799  120A  118A  	fcall	___awdiv
  4922     06BD  0872               	movf	?___awdiv,w
  4923     06BE  3E30               	addlw	48
  4924     06BF  160A  118A  215D  120A  118A  	fcall	_clcd_putch
  4925                           
  4926                           ;function_definitions.c: 515:     clcd_putch(new_time[2] % 10 + '0', (0xC0 + 7));
  4927     06C4  30C7               	movlw	199
  4928     06C5  1283               	bcf	3,5	;RP0=0, select bank0
  4929     06C6  1303               	bcf	3,6	;RP1=0, select bank0
  4930     06C7  00C9               	movwf	clcd_putch@addr
  4931     06C8  300A               	movlw	10
  4932     06C9  00F2               	movwf	___lwmod@divisor
  4933     06CA  3000               	movlw	0
  4934     06CB  00F3               	movwf	___lwmod@divisor+1
  4935     06CC  0825               	movf	set_time@new_time+5,w
  4936     06CD  00F5               	movwf	___lwmod@dividend+1
  4937     06CE  0824               	movf	set_time@new_time+4,w
  4938     06CF  00F4               	movwf	___lwmod@dividend
  4939     06D0  160A  118A  23F1  120A  118A  	fcall	___lwmod
  4940     06D5  0872               	movf	?___lwmod,w
  4941     06D6  3E30               	addlw	48
  4942     06D7  160A  118A  215D  120A  118A  	fcall	_clcd_putch
  4943     06DC  2C96               	goto	l4957
  4944     06DD                     l434:
  4945     06DD  0008               	return
  4946     06DE                     __end_of_set_time:
  4947                           
  4948                           	psect	text4
  4949     11FF                     __ptext4:	
  4950 ;; *************** function ___wmul *****************
  4951 ;; Defined at:
  4952 ;;		line 15 in file "C:\Program Files\Microchip\xc8\v2.46\pic\sources\c99\common\Umul16.c"
  4953 ;; Parameters:    Size  Location     Type
  4954 ;;  multiplier      2    2[COMMON] unsigned int 
  4955 ;;  multiplicand    2    4[COMMON] unsigned int 
  4956 ;; Auto vars:     Size  Location     Type
  4957 ;;  product         2    6[COMMON] unsigned int 
  4958 ;; Return value:  Size  Location     Type
  4959 ;;                  2    2[COMMON] unsigned int 
  4960 ;; Registers used:
  4961 ;;		wreg, status,2, status,0
  4962 ;; Tracked objects:
  4963 ;;		On entry : 0/0
  4964 ;;		On exit  : 0/0
  4965 ;;		Unchanged: 0/0
  4966 ;; Data sizes:     COMMON   BANK0   BANK1   BANK3   BANK2
  4967 ;;      Params:         4       0       0       0       0
  4968 ;;      Locals:         2       0       0       0       0
  4969 ;;      Temps:          0       0       0       0       0
  4970 ;;      Totals:         6       0       0       0       0
  4971 ;;Total ram usage:        6 bytes
  4972 ;; Hardware stack levels used: 1
  4973 ;; Hardware stack levels required when called: 1
  4974 ;; This function calls:
  4975 ;;		Nothing
  4976 ;; This function is called by:
  4977 ;;		_set_time
  4978 ;; This function uses a non-reentrant model
  4979 ;;
  4980                           
  4981     11FF                     ___wmul:	
  4982                           ;psect for function ___wmul
  4983                           
  4984     11FF                     l4337:	
  4985                           ;incstack = 0
  4986                           ; Regs used in ___wmul: [wreg+status,2+status,0]
  4987                           
  4988     11FF  01F6               	clrf	___wmul@product
  4989     1200  01F7               	clrf	___wmul@product+1
  4990     1201                     l4339:
  4991     1201  1C72               	btfss	___wmul@multiplier,0
  4992     1202  2A04               	goto	u3781
  4993     1203  2A05               	goto	u3780
  4994     1204                     u3781:
  4995     1204  2A0B               	goto	l668
  4996     1205                     u3780:
  4997     1205                     l4341:
  4998     1205  0874               	movf	___wmul@multiplicand,w
  4999     1206  07F6               	addwf	___wmul@product,f
  5000     1207  1803               	skipnc
  5001     1208  0AF7               	incf	___wmul@product+1,f
  5002     1209  0875               	movf	___wmul@multiplicand+1,w
  5003     120A  07F7               	addwf	___wmul@product+1,f
  5004     120B                     l668:
  5005     120B  3001               	movlw	1
  5006     120C                     u3795:
  5007     120C  1003               	clrc
  5008     120D  0DF4               	rlf	___wmul@multiplicand,f
  5009     120E  0DF5               	rlf	___wmul@multiplicand+1,f
  5010     120F  3EFF               	addlw	-1
  5011     1210  1D03               	skipz
  5012     1211  2A0C               	goto	u3795
  5013     1212                     l4343:
  5014     1212  3001               	movlw	1
  5015     1213                     u3805:
  5016     1213  1003               	clrc
  5017     1214  0CF3               	rrf	___wmul@multiplier+1,f
  5018     1215  0CF2               	rrf	___wmul@multiplier,f
  5019     1216  3EFF               	addlw	-1
  5020     1217  1D03               	skipz
  5021     1218  2A13               	goto	u3805
  5022     1219                     l4345:
  5023     1219  0872               	movf	___wmul@multiplier,w
  5024     121A  0473               	iorwf	___wmul@multiplier+1,w
  5025     121B  1D03               	btfss	3,2
  5026     121C  2A1E               	goto	u3811
  5027     121D  2A1F               	goto	u3810
  5028     121E                     u3811:
  5029     121E  2A01               	goto	l4339
  5030     121F                     u3810:
  5031     121F                     l4347:
  5032     121F  0877               	movf	___wmul@product+1,w
  5033     1220  00F3               	movwf	?___wmul+1
  5034     1221  0876               	movf	___wmul@product,w
  5035     1222  00F2               	movwf	?___wmul
  5036     1223                     l670:
  5037     1223  0008               	return
  5038     1224                     __end_of___wmul:
  5039                           
  5040                           	psect	text5
  5041     13F1                     __ptext5:	
  5042 ;; *************** function ___lwmod *****************
  5043 ;; Defined at:
  5044 ;;		line 5 in file "C:\Program Files\Microchip\xc8\v2.46\pic\sources\c99\common\lwmod.c"
  5045 ;; Parameters:    Size  Location     Type
  5046 ;;  divisor         2    2[COMMON] unsigned int 
  5047 ;;  dividend        2    4[COMMON] unsigned int 
  5048 ;; Auto vars:     Size  Location     Type
  5049 ;;  counter         1    6[COMMON] unsigned char 
  5050 ;; Return value:  Size  Location     Type
  5051 ;;                  2    2[COMMON] unsigned int 
  5052 ;; Registers used:
  5053 ;;		wreg, status,2, status,0, btemp+1
  5054 ;; Tracked objects:
  5055 ;;		On entry : 0/0
  5056 ;;		On exit  : 0/0
  5057 ;;		Unchanged: 0/0
  5058 ;; Data sizes:     COMMON   BANK0   BANK1   BANK3   BANK2
  5059 ;;      Params:         4       0       0       0       0
  5060 ;;      Locals:         1       0       0       0       0
  5061 ;;      Temps:          0       0       0       0       0
  5062 ;;      Totals:         5       0       0       0       0
  5063 ;;Total ram usage:        5 bytes
  5064 ;; Hardware stack levels used: 1
  5065 ;; Hardware stack levels required when called: 1
  5066 ;; This function calls:
  5067 ;;		Nothing
  5068 ;; This function is called by:
  5069 ;;		_set_time
  5070 ;; This function uses a non-reentrant model
  5071 ;;
  5072                           
  5073     13F1                     ___lwmod:	
  5074                           ;psect for function ___lwmod
  5075                           
  5076     13F1                     l4459:	
  5077                           ;incstack = 0
  5078                           ; Regs used in ___lwmod: [wreg+status,2+status,0+btemp+1]
  5079                           
  5080     13F1  0872               	movf	___lwmod@divisor,w
  5081     13F2  0473               	iorwf	___lwmod@divisor+1,w
  5082     13F3  1903               	btfsc	3,2
  5083     13F4  2BF6               	goto	u4081
  5084     13F5  2BF7               	goto	u4080
  5085     13F6                     u4081:
  5086     13F6  2C26               	goto	l4477
  5087     13F7                     u4080:
  5088     13F7                     l4461:
  5089     13F7  01F6               	clrf	___lwmod@counter
  5090     13F8  0AF6               	incf	___lwmod@counter,f
  5091     13F9  2C05               	goto	l4467
  5092     13FA                     l4463:
  5093     13FA  3001               	movlw	1
  5094     13FB                     u4095:
  5095     13FB  1003               	clrc
  5096     13FC  0DF2               	rlf	___lwmod@divisor,f
  5097     13FD  0DF3               	rlf	___lwmod@divisor+1,f
  5098     13FE  3EFF               	addlw	-1
  5099     13FF  1D03               	skipz
  5100     1400  2BFB               	goto	u4095
  5101     1401                     l4465:
  5102     1401  3001               	movlw	1
  5103     1402  00FF               	movwf	btemp+1
  5104     1403  087F               	movf	btemp+1,w
  5105     1404  07F6               	addwf	___lwmod@counter,f
  5106     1405                     l4467:
  5107     1405  1FF3               	btfss	___lwmod@divisor+1,7
  5108     1406  2C08               	goto	u4101
  5109     1407  2C09               	goto	u4100
  5110     1408                     u4101:
  5111     1408  2BFA               	goto	l4463
  5112     1409                     u4100:
  5113     1409                     l4469:
  5114     1409  0873               	movf	___lwmod@divisor+1,w
  5115     140A  0275               	subwf	___lwmod@dividend+1,w
  5116     140B  1D03               	skipz
  5117     140C  2C0F               	goto	u4115
  5118     140D  0872               	movf	___lwmod@divisor,w
  5119     140E  0274               	subwf	___lwmod@dividend,w
  5120     140F                     u4115:
  5121     140F  1C03               	skipc
  5122     1410  2C12               	goto	u4111
  5123     1411  2C13               	goto	u4110
  5124     1412                     u4111:
  5125     1412  2C19               	goto	l4473
  5126     1413                     u4110:
  5127     1413                     l4471:
  5128     1413  0872               	movf	___lwmod@divisor,w
  5129     1414  02F4               	subwf	___lwmod@dividend,f
  5130     1415  0873               	movf	___lwmod@divisor+1,w
  5131     1416  1C03               	skipc
  5132     1417  03F5               	decf	___lwmod@dividend+1,f
  5133     1418  02F5               	subwf	___lwmod@dividend+1,f
  5134     1419                     l4473:
  5135     1419  3001               	movlw	1
  5136     141A                     u4125:
  5137     141A  1003               	clrc
  5138     141B  0CF3               	rrf	___lwmod@divisor+1,f
  5139     141C  0CF2               	rrf	___lwmod@divisor,f
  5140     141D  3EFF               	addlw	-1
  5141     141E  1D03               	skipz
  5142     141F  2C1A               	goto	u4125
  5143     1420                     l4475:
  5144     1420  3001               	movlw	1
  5145     1421  02F6               	subwf	___lwmod@counter,f
  5146     1422  1D03               	btfss	3,2
  5147     1423  2C25               	goto	u4131
  5148     1424  2C26               	goto	u4130
  5149     1425                     u4131:
  5150     1425  2C09               	goto	l4469
  5151     1426                     u4130:
  5152     1426                     l4477:
  5153     1426  0875               	movf	___lwmod@dividend+1,w
  5154     1427  00F3               	movwf	?___lwmod+1
  5155     1428  0874               	movf	___lwmod@dividend,w
  5156     1429  00F2               	movwf	?___lwmod
  5157     142A                     l958:
  5158     142A  0008               	return
  5159     142B                     __end_of___lwmod:
  5160                           
  5161                           	psect	text6
  5162     14AD                     __ptext6:	
  5163 ;; *************** function ___lwdiv *****************
  5164 ;; Defined at:
  5165 ;;		line 5 in file "C:\Program Files\Microchip\xc8\v2.46\pic\sources\c99\common\lwdiv.c"
  5166 ;; Parameters:    Size  Location     Type
  5167 ;;  divisor         2    6[COMMON] unsigned int 
  5168 ;;  dividend        2    8[COMMON] unsigned int 
  5169 ;; Auto vars:     Size  Location     Type
  5170 ;;  quotient        2    1[BANK0 ] unsigned int 
  5171 ;;  counter         1    0[BANK0 ] unsigned char 
  5172 ;; Return value:  Size  Location     Type
  5173 ;;                  2    6[COMMON] unsigned int 
  5174 ;; Registers used:
  5175 ;;		wreg, status,2, status,0, btemp+1
  5176 ;; Tracked objects:
  5177 ;;		On entry : 0/0
  5178 ;;		On exit  : 0/0
  5179 ;;		Unchanged: 0/0
  5180 ;; Data sizes:     COMMON   BANK0   BANK1   BANK3   BANK2
  5181 ;;      Params:         4       0       0       0       0
  5182 ;;      Locals:         0       3       0       0       0
  5183 ;;      Temps:          0       0       0       0       0
  5184 ;;      Totals:         4       3       0       0       0
  5185 ;;Total ram usage:        7 bytes
  5186 ;; Hardware stack levels used: 1
  5187 ;; Hardware stack levels required when called: 1
  5188 ;; This function calls:
  5189 ;;		Nothing
  5190 ;; This function is called by:
  5191 ;;		_main
  5192 ;;		_set_time
  5193 ;; This function uses a non-reentrant model
  5194 ;;
  5195                           
  5196     14AD                     ___lwdiv:	
  5197                           ;psect for function ___lwdiv
  5198                           
  5199     14AD                     l4433:	
  5200                           ;incstack = 0
  5201                           ; Regs used in ___lwdiv: [wreg+status,2+status,0+btemp+1]
  5202                           
  5203     14AD  1283               	bcf	3,5	;RP0=0, select bank0
  5204     14AE  1303               	bcf	3,6	;RP1=0, select bank0
  5205     14AF  01CA               	clrf	___lwdiv@quotient
  5206     14B0  01CB               	clrf	___lwdiv@quotient+1
  5207     14B1                     l4435:
  5208     14B1  0876               	movf	___lwdiv@divisor,w
  5209     14B2  0477               	iorwf	___lwdiv@divisor+1,w
  5210     14B3  1903               	btfsc	3,2
  5211     14B4  2CB6               	goto	u4011
  5212     14B5  2CB7               	goto	u4010
  5213     14B6                     u4011:
  5214     14B6  2CEE               	goto	l4455
  5215     14B7                     u4010:
  5216     14B7                     l4437:
  5217     14B7  01C9               	clrf	___lwdiv@counter
  5218     14B8  0AC9               	incf	___lwdiv@counter,f
  5219     14B9  2CC5               	goto	l4443
  5220     14BA                     l4439:
  5221     14BA  3001               	movlw	1
  5222     14BB                     u4025:
  5223     14BB  1003               	clrc
  5224     14BC  0DF6               	rlf	___lwdiv@divisor,f
  5225     14BD  0DF7               	rlf	___lwdiv@divisor+1,f
  5226     14BE  3EFF               	addlw	-1
  5227     14BF  1D03               	skipz
  5228     14C0  2CBB               	goto	u4025
  5229     14C1                     l4441:
  5230     14C1  3001               	movlw	1
  5231     14C2  00FF               	movwf	btemp+1
  5232     14C3  087F               	movf	btemp+1,w
  5233     14C4  07C9               	addwf	___lwdiv@counter,f
  5234     14C5                     l4443:
  5235     14C5  1FF7               	btfss	___lwdiv@divisor+1,7
  5236     14C6  2CC8               	goto	u4031
  5237     14C7  2CC9               	goto	u4030
  5238     14C8                     u4031:
  5239     14C8  2CBA               	goto	l4439
  5240     14C9                     u4030:
  5241     14C9                     l4445:
  5242     14C9  3001               	movlw	1
  5243     14CA                     u4045:
  5244     14CA  1003               	clrc
  5245     14CB  0DCA               	rlf	___lwdiv@quotient,f
  5246     14CC  0DCB               	rlf	___lwdiv@quotient+1,f
  5247     14CD  3EFF               	addlw	-1
  5248     14CE  1D03               	skipz
  5249     14CF  2CCA               	goto	u4045
  5250     14D0  0877               	movf	___lwdiv@divisor+1,w
  5251     14D1  0279               	subwf	___lwdiv@dividend+1,w
  5252     14D2  1D03               	skipz
  5253     14D3  2CD6               	goto	u4055
  5254     14D4  0876               	movf	___lwdiv@divisor,w
  5255     14D5  0278               	subwf	___lwdiv@dividend,w
  5256     14D6                     u4055:
  5257     14D6  1C03               	skipc
  5258     14D7  2CD9               	goto	u4051
  5259     14D8  2CDA               	goto	u4050
  5260     14D9                     u4051:
  5261     14D9  2CE1               	goto	l4451
  5262     14DA                     u4050:
  5263     14DA                     l4447:
  5264     14DA  0876               	movf	___lwdiv@divisor,w
  5265     14DB  02F8               	subwf	___lwdiv@dividend,f
  5266     14DC  0877               	movf	___lwdiv@divisor+1,w
  5267     14DD  1C03               	skipc
  5268     14DE  03F9               	decf	___lwdiv@dividend+1,f
  5269     14DF  02F9               	subwf	___lwdiv@dividend+1,f
  5270     14E0                     l4449:
  5271     14E0  144A               	bsf	___lwdiv@quotient,0
  5272     14E1                     l4451:
  5273     14E1  3001               	movlw	1
  5274     14E2                     u4065:
  5275     14E2  1003               	clrc
  5276     14E3  0CF7               	rrf	___lwdiv@divisor+1,f
  5277     14E4  0CF6               	rrf	___lwdiv@divisor,f
  5278     14E5  3EFF               	addlw	-1
  5279     14E6  1D03               	skipz
  5280     14E7  2CE2               	goto	u4065
  5281     14E8                     l4453:
  5282     14E8  3001               	movlw	1
  5283     14E9  02C9               	subwf	___lwdiv@counter,f
  5284     14EA  1D03               	btfss	3,2
  5285     14EB  2CED               	goto	u4071
  5286     14EC  2CEE               	goto	u4070
  5287     14ED                     u4071:
  5288     14ED  2CC9               	goto	l4445
  5289     14EE                     u4070:
  5290     14EE                     l4455:
  5291     14EE  084B               	movf	___lwdiv@quotient+1,w
  5292     14EF  00F7               	movwf	?___lwdiv+1
  5293     14F0  084A               	movf	___lwdiv@quotient,w
  5294     14F1  00F6               	movwf	?___lwdiv
  5295     14F2                     l948:
  5296     14F2  0008               	return
  5297     14F3                     __end_of___lwdiv:
  5298                           
  5299                           	psect	text7
  5300     1685                     __ptext7:	
  5301 ;; *************** function _record_event *****************
  5302 ;; Defined at:
  5303 ;;		line 89 in file "function_definitions.c"
  5304 ;; Parameters:    Size  Location     Type
  5305 ;;  event           2    0[BANK0 ] PTR unsigned char 
  5306 ;;		 -> STR_18(3), STR_17(3), STR_15(3), STR_13(3), 
  5307 ;;		 -> STR_11(3), main@event(3), 
  5308 ;;  speed           1    2[BANK0 ] unsigned char 
  5309 ;; Auto vars:     Size  Location     Type
  5310 ;;		None
  5311 ;; Return value:  Size  Location     Type
  5312 ;;                  1    wreg      void 
  5313 ;; Registers used:
  5314 ;;		wreg, fsr0l, fsr0h, status,2, status,0, btemp+1, pclath, cstack
  5315 ;; Tracked objects:
  5316 ;;		On entry : 0/0
  5317 ;;		On exit  : 0/0
  5318 ;;		Unchanged: 0/0
  5319 ;; Data sizes:     COMMON   BANK0   BANK1   BANK3   BANK2
  5320 ;;      Params:         0       3       0       0       0
  5321 ;;      Locals:         0       0       0       0       0
  5322 ;;      Temps:          0       2       0       0       0
  5323 ;;      Totals:         0       5       0       0       0
  5324 ;;Total ram usage:        5 bytes
  5325 ;; Hardware stack levels used: 1
  5326 ;; Hardware stack levels required when called: 6
  5327 ;; This function calls:
  5328 ;;		___awdiv
  5329 ;;		___awmod
  5330 ;;		_get_time
  5331 ;;		_store_records_EEPROM
  5332 ;;		_strncpy
  5333 ;; This function is called by:
  5334 ;;		_main
  5335 ;; This function uses a non-reentrant model
  5336 ;;
  5337                           
  5338     1685                     _record_event:	
  5339                           ;psect for function _record_event
  5340                           
  5341     1685                     l4581:	
  5342                           ;incstack = 0
  5343                           ; Regs used in _record_event: [wreg-fsr0h+status,2+status,0+btemp+1+pclath+cstack]
  5344                           
  5345                           
  5346                           ;function_definitions.c: 90:     get_time();
  5347     1685  160A  118A  253B  160A  118A  	fcall	_get_time
  5348     168A                     l4583:
  5349                           
  5350                           ;function_definitions.c: 91:     strncpy(records, time, 6);
  5351     168A  303E               	movlw	(low (_time| 0))& (0+255)
  5352     168B  00F2               	movwf	strncpy@s
  5353     168C  3000               	movlw	0
  5354     168D  00F3               	movwf	strncpy@s+1
  5355     168E  3006               	movlw	6
  5356     168F  00F4               	movwf	strncpy@n
  5357     1690  3000               	movlw	0
  5358     1691  00F5               	movwf	strncpy@n+1
  5359     1692  30B9               	movlw	(low (_records| 0))& (0+255)
  5360     1693  160A  118A  24F3  160A  118A  	fcall	_strncpy
  5361     1698                     l4585:
  5362                           
  5363                           ;function_definitions.c: 92:     strncpy(&records[6], event, 2);
  5364     1698  1283               	bcf	3,5	;RP0=0, select bank0
  5365     1699  1303               	bcf	3,6	;RP1=0, select bank0
  5366     169A  0849               	movf	record_event@event,w
  5367     169B  00F2               	movwf	strncpy@s
  5368     169C  084A               	movf	record_event@event+1,w
  5369     169D  00F3               	movwf	strncpy@s+1
  5370     169E  3002               	movlw	2
  5371     169F  00F4               	movwf	strncpy@n
  5372     16A0  3000               	movlw	0
  5373     16A1  00F5               	movwf	strncpy@n+1
  5374     16A2  30BF               	movlw	(low ((_records| 0+6)))& (0+255)
  5375     16A3  160A  118A  24F3  160A  118A  	fcall	_strncpy
  5376     16A8                     l4587:
  5377                           
  5378                           ;function_definitions.c: 93:     records[8] = speed / 10 + '0';
  5379     16A8  300A               	movlw	10
  5380     16A9  00F2               	movwf	___awdiv@divisor
  5381     16AA  3000               	movlw	0
  5382     16AB  00F3               	movwf	___awdiv@divisor+1
  5383     16AC  1283               	bcf	3,5	;RP0=0, select bank0
  5384     16AD  1303               	bcf	3,6	;RP1=0, select bank0
  5385     16AE  084B               	movf	record_event@speed,w
  5386     16AF  00CC               	movwf	??_record_event
  5387     16B0  01CD               	clrf	??_record_event+1
  5388     16B1  084C               	movf	??_record_event,w
  5389     16B2  00F4               	movwf	___awdiv@dividend
  5390     16B3  084D               	movf	??_record_event+1,w
  5391     16B4  00F5               	movwf	___awdiv@dividend+1
  5392     16B5  160A  118A  2799  160A  118A  	fcall	___awdiv
  5393     16BA  0872               	movf	?___awdiv,w
  5394     16BB  3E30               	addlw	48
  5395     16BC  1683               	bsf	3,5	;RP0=1, select bank1
  5396     16BD  1303               	bcf	3,6	;RP1=0, select bank1
  5397     16BE  00C1               	movwf	(_records^(0+128)+8)
  5398     16BF                     l4589:
  5399                           
  5400                           ;function_definitions.c: 94:     records[9] = speed % 10 + '0';
  5401     16BF  300A               	movlw	10
  5402     16C0  00F2               	movwf	___awmod@divisor
  5403     16C1  3000               	movlw	0
  5404     16C2  00F3               	movwf	___awmod@divisor+1
  5405     16C3  1283               	bcf	3,5	;RP0=0, select bank0
  5406     16C4  1303               	bcf	3,6	;RP1=0, select bank0
  5407     16C5  084B               	movf	record_event@speed,w
  5408     16C6  00CC               	movwf	??_record_event
  5409     16C7  01CD               	clrf	??_record_event+1
  5410     16C8  084C               	movf	??_record_event,w
  5411     16C9  00F4               	movwf	___awmod@dividend
  5412     16CA  084D               	movf	??_record_event+1,w
  5413     16CB  00F5               	movwf	___awmod@dividend+1
  5414     16CC  160A  118A  26DD  160A  118A  	fcall	___awmod
  5415     16D1  0872               	movf	?___awmod,w
  5416     16D2  3E30               	addlw	48
  5417     16D3  1683               	bsf	3,5	;RP0=1, select bank1
  5418     16D4  1303               	bcf	3,6	;RP1=0, select bank1
  5419     16D5  00C2               	movwf	(_records^(0+128)+9)
  5420     16D6                     l4591:
  5421                           
  5422                           ;function_definitions.c: 95:     records[10] = '\0';
  5423     16D6  01C3               	clrf	(_records^(0+128)+10)
  5424     16D7                     l4593:
  5425                           
  5426                           ;function_definitions.c: 96:     store_records_EEPROM();
  5427     16D7  160A  118A  242B  160A  118A  	fcall	_store_records_EEPROM
  5428     16DC                     l350:
  5429     16DC  0008               	return
  5430     16DD                     __end_of_record_event:
  5431                           
  5432                           	psect	text8
  5433     14F3                     __ptext8:	
  5434 ;; *************** function _strncpy *****************
  5435 ;; Defined at:
  5436 ;;		line 3 in file "C:\Program Files\Microchip\xc8\v2.46\pic\sources\c99\common\strncpy.c"
  5437 ;; Parameters:    Size  Location     Type
  5438 ;;  d               1    wreg     PTR unsigned char 
  5439 ;;		 -> records(11), 
  5440 ;;  s               2    2[COMMON] PTR const unsigned char 
  5441 ;;		 -> time(7), STR_18(3), STR_17(3), STR_15(3), 
  5442 ;;		 -> STR_13(3), STR_11(3), main@event(3), 
  5443 ;;  n               2    4[COMMON] unsigned int 
  5444 ;; Auto vars:     Size  Location     Type
  5445 ;;  d               1    8[COMMON] PTR unsigned char 
  5446 ;;		 -> records(11), 
  5447 ;;  cp              1    9[COMMON] PTR unsigned char 
  5448 ;;		 -> records(11), 
  5449 ;; Return value:  Size  Location     Type
  5450 ;;                  1    wreg      PTR unsigned char 
  5451 ;; Registers used:
  5452 ;;		wreg, fsr0l, fsr0h, status,2, status,0, btemp+1, pclath
  5453 ;; Tracked objects:
  5454 ;;		On entry : 0/0
  5455 ;;		On exit  : 0/0
  5456 ;;		Unchanged: 0/0
  5457 ;; Data sizes:     COMMON   BANK0   BANK1   BANK3   BANK2
  5458 ;;      Params:         4       0       0       0       0
  5459 ;;      Locals:         2       0       0       0       0
  5460 ;;      Temps:          2       0       0       0       0
  5461 ;;      Totals:         8       0       0       0       0
  5462 ;;Total ram usage:        8 bytes
  5463 ;; Hardware stack levels used: 2
  5464 ;; Hardware stack levels required when called: 1
  5465 ;; This function calls:
  5466 ;;		Nothing
  5467 ;; This function is called by:
  5468 ;;		_record_event
  5469 ;; This function uses a non-reentrant model
  5470 ;;
  5471                           
  5472     14F3                     _strncpy:	
  5473                           ;psect for function _strncpy
  5474                           
  5475                           
  5476                           ;incstack = 0
  5477                           ; Regs used in _strncpy: [wreg-fsr0h+status,2+status,0+btemp+1+pclath]
  5478                           ;strncpy@d stored from wreg
  5479     14F3  00F8               	movwf	strncpy@d
  5480     14F4                     l4293:
  5481     14F4  0878               	movf	strncpy@d,w
  5482     14F5  00F9               	movwf	strncpy@cp
  5483     14F6  2D1D               	goto	l4301
  5484     14F7                     l4295:
  5485     14F7  3001               	movlw	1
  5486     14F8  02F4               	subwf	strncpy@n,f
  5487     14F9  3000               	movlw	0
  5488     14FA  1C03               	skipc
  5489     14FB  03F5               	decf	strncpy@n+1,f
  5490     14FC  02F5               	subwf	strncpy@n+1,f
  5491     14FD                     l4297:
  5492     14FD  0873               	movf	strncpy@s+1,w
  5493     14FE  00F7               	movwf	??_strncpy+1
  5494     14FF  0872               	movf	strncpy@s,w
  5495     1500  00F6               	movwf	??_strncpy
  5496     1501  0AF2               	incf	strncpy@s,f
  5497     1502  1903               	skipnz
  5498     1503  0AF3               	incf	strncpy@s+1,f
  5499     1504  0877               	movf	??_strncpy+1,w
  5500     1505  1283               	bcf	3,5	;RP0=0, select bank0
  5501     1506  1303               	bcf	3,6	;RP1=0, select bank0
  5502     1507  00FF               	movwf	btemp+1
  5503     1508  0876               	movf	??_strncpy,w
  5504     1509  0084               	movwf	4
  5505     150A  160A  118A  2000  160A  118A  	fcall	stringtab
  5506     150F  00FF               	movwf	btemp+1
  5507     1510  0879               	movf	strncpy@cp,w
  5508     1511  0084               	movwf	4
  5509     1512  3001               	movlw	1
  5510     1513  07F9               	addwf	strncpy@cp,f
  5511     1514  087F               	movf	btemp+1,w
  5512     1515  1383               	bcf	3,7	;select IRP bank0
  5513     1516  0080               	movwf	0
  5514     1517  0800               	movf	0,w
  5515     1518  1D03               	btfss	3,2
  5516     1519  2D1B               	goto	u3701
  5517     151A  2D1C               	goto	u3700
  5518     151B                     u3701:
  5519     151B  2D1D               	goto	l4301
  5520     151C                     u3700:
  5521     151C  2D2C               	goto	l4307
  5522     151D                     l4301:
  5523     151D  0874               	movf	strncpy@n,w
  5524     151E  0475               	iorwf	strncpy@n+1,w
  5525     151F  1D03               	btfss	3,2
  5526     1520  2D22               	goto	u3711
  5527     1521  2D23               	goto	u3710
  5528     1522                     u3711:
  5529     1522  2CF7               	goto	l4295
  5530     1523                     u3710:
  5531     1523  2D2C               	goto	l4307
  5532     1524                     l4303:
  5533     1524  0879               	movf	strncpy@cp,w
  5534     1525  0084               	movwf	4
  5535     1526  1383               	bcf	3,7	;select IRP bank0
  5536     1527  0180               	clrf	0
  5537     1528                     l4305:
  5538     1528  3001               	movlw	1
  5539     1529  00FF               	movwf	btemp+1
  5540     152A  087F               	movf	btemp+1,w
  5541     152B  07F9               	addwf	strncpy@cp,f
  5542     152C                     l4307:
  5543     152C  3001               	movlw	1
  5544     152D  02F4               	subwf	strncpy@n,f
  5545     152E  3000               	movlw	0
  5546     152F  1C03               	skipc
  5547     1530  03F5               	decf	strncpy@n+1,f
  5548     1531  02F5               	subwf	strncpy@n+1,f
  5549     1532  0A74               	incf	strncpy@n,w
  5550     1533  1D03               	skipz
  5551     1534  2D39               	goto	u3721
  5552     1535  0A75               	incf	strncpy@n+1,w
  5553     1536  1D03               	btfss	3,2
  5554     1537  2D39               	goto	u3721
  5555     1538  2D3A               	goto	u3720
  5556     1539                     u3721:
  5557     1539  2D24               	goto	l4303
  5558     153A                     u3720:
  5559     153A                     l1149:
  5560     153A  0008               	return
  5561     153B                     __end_of_strncpy:
  5562                           
  5563                           	psect	text9
  5564     142B                     __ptext9:	
  5565 ;; *************** function _store_records_EEPROM *****************
  5566 ;; Defined at:
  5567 ;;		line 74 in file "function_definitions.c"
  5568 ;; Parameters:    Size  Location     Type
  5569 ;;		None
  5570 ;; Auto vars:     Size  Location     Type
  5571 ;;		None
  5572 ;; Return value:  Size  Location     Type
  5573 ;;                  1    wreg      void 
  5574 ;; Registers used:
  5575 ;;		wreg, fsr0l, fsr0h, status,2, status,0, btemp+1, pclath, cstack
  5576 ;; Tracked objects:
  5577 ;;		On entry : 0/0
  5578 ;;		On exit  : 0/0
  5579 ;;		Unchanged: 0/0
  5580 ;; Data sizes:     COMMON   BANK0   BANK1   BANK3   BANK2
  5581 ;;      Params:         0       0       0       0       0
  5582 ;;      Locals:         0       0       0       0       0
  5583 ;;      Temps:          0       0       0       0       0
  5584 ;;      Totals:         0       0       0       0       0
  5585 ;;Total ram usage:        0 bytes
  5586 ;; Hardware stack levels used: 1
  5587 ;; Hardware stack levels required when called: 5
  5588 ;; This function calls:
  5589 ;;		___bmul
  5590 ;;		_eeprom_write_string
  5591 ;; This function is called by:
  5592 ;;		_record_event
  5593 ;; This function uses a non-reentrant model
  5594 ;;
  5595                           
  5596     142B                     _store_records_EEPROM:	
  5597                           ;psect for function _store_records_EEPROM
  5598                           
  5599     142B                     l4279:	
  5600                           ;incstack = 0
  5601                           ; Regs used in _store_records_EEPROM: [wreg-fsr0h+status,2+status,0+btemp+1+pclath+cstac
      +                          k]
  5602                           
  5603                           
  5604                           ;function_definitions.c: 75:     static unsigned char addr = 0x05;;function_definitions.
      +                          c: 76:     pos++;
  5605     142B  3001               	movlw	1
  5606     142C  1283               	bcf	3,5	;RP0=0, select bank0
  5607     142D  1303               	bcf	3,6	;RP1=0, select bank0
  5608     142E  07E4               	addwf	_pos,f
  5609     142F  1803               	skipnc
  5610     1430  0AE5               	incf	_pos+1,f
  5611     1431  3000               	movlw	0
  5612     1432  07E5               	addwf	_pos+1,f
  5613     1433                     l4281:
  5614                           
  5615                           ;function_definitions.c: 77:     if (pos == 10) {
  5616     1433  300A               	movlw	10
  5617     1434  0664               	xorwf	_pos,w
  5618     1435  0465               	iorwf	_pos+1,w
  5619     1436  1D03               	btfss	3,2
  5620     1437  2C39               	goto	u3681
  5621     1438  2C3A               	goto	u3680
  5622     1439                     u3681:
  5623     1439  2C3C               	goto	l4285
  5624     143A                     u3680:
  5625     143A                     l4283:
  5626                           
  5627                           ;function_definitions.c: 78:         pos = 0;
  5628     143A  01E4               	clrf	_pos
  5629     143B  01E5               	clrf	_pos+1
  5630     143C                     l4285:
  5631                           
  5632                           ;function_definitions.c: 80:     addr = (pos * 10) + 0x05;
  5633     143C  300A               	movlw	10
  5634     143D  00F2               	movwf	___bmul@multiplicand
  5635     143E  0864               	movf	_pos,w
  5636     143F  160A  118A  2172  160A  118A  	fcall	___bmul
  5637     1444  3E05               	addlw	5
  5638     1445  1283               	bcf	3,5	;RP0=0, select bank0
  5639     1446  1303               	bcf	3,6	;RP1=0, select bank0
  5640     1447  00E6               	movwf	store_records_EEPROM@addr
  5641     1448                     l4287:
  5642                           
  5643                           ;function_definitions.c: 81:     eeprom_write_string(addr, records);
  5644     1448  30B9               	movlw	(low (_records| 0))& (0+255)
  5645     1449  00F5               	movwf	eeprom_write_string@data
  5646     144A  3000               	movlw	0
  5647     144B  00F6               	movwf	eeprom_write_string@data+1
  5648     144C  0866               	movf	store_records_EEPROM@addr,w
  5649     144D  160A  118A  22CB  160A  118A  	fcall	_eeprom_write_string
  5650     1452                     l4289:
  5651                           
  5652                           ;function_definitions.c: 82:     if (record_count < 9) {
  5653     1452  1283               	bcf	3,5	;RP0=0, select bank0
  5654     1453  1303               	bcf	3,6	;RP1=0, select bank0
  5655     1454  0863               	movf	_record_count+1,w
  5656     1455  3A80               	xorlw	128
  5657     1456  00FF               	movwf	btemp+1
  5658     1457  3080               	movlw	128
  5659     1458  027F               	subwf	btemp+1,w
  5660     1459  1D03               	skipz
  5661     145A  2C5D               	goto	u3695
  5662     145B  3009               	movlw	9
  5663     145C  0262               	subwf	_record_count,w
  5664     145D                     u3695:
  5665     145D  1803               	skipnc
  5666     145E  2C60               	goto	u3691
  5667     145F  2C61               	goto	u3690
  5668     1460                     u3691:
  5669     1460  2C69               	goto	l347
  5670     1461                     u3690:
  5671     1461                     l4291:
  5672                           
  5673                           ;function_definitions.c: 83:         record_count++;
  5674     1461  3001               	movlw	1
  5675     1462  1283               	bcf	3,5	;RP0=0, select bank0
  5676     1463  1303               	bcf	3,6	;RP1=0, select bank0
  5677     1464  07E2               	addwf	_record_count,f
  5678     1465  1803               	skipnc
  5679     1466  0AE3               	incf	_record_count+1,f
  5680     1467  3000               	movlw	0
  5681     1468  07E3               	addwf	_record_count+1,f
  5682     1469                     l347:
  5683     1469  0008               	return
  5684     146A                     __end_of_store_records_EEPROM:
  5685                           
  5686                           	psect	text10
  5687     093F                     __ptext10:	
  5688 ;; *************** function _read_digital_keypad *****************
  5689 ;; Defined at:
  5690 ;;		line 8 in file "digital_keypad.c"
  5691 ;; Parameters:    Size  Location     Type
  5692 ;;  mode            1    wreg     unsigned char 
  5693 ;; Auto vars:     Size  Location     Type
  5694 ;;  mode            1    6[COMMON] unsigned char 
  5695 ;;  short_key_pr    1    5[COMMON] unsigned char 
  5696 ;;  key             1    7[COMMON] unsigned char 
  5697 ;; Return value:  Size  Location     Type
  5698 ;;                  1    wreg      unsigned char 
  5699 ;; Registers used:
  5700 ;;		wreg, status,2, status,0, btemp+1
  5701 ;; Tracked objects:
  5702 ;;		On entry : 0/0
  5703 ;;		On exit  : 0/0
  5704 ;;		Unchanged: 0/0
  5705 ;; Data sizes:     COMMON   BANK0   BANK1   BANK3   BANK2
  5706 ;;      Params:         0       0       0       0       0
  5707 ;;      Locals:         3       0       0       0       0
  5708 ;;      Temps:          3       0       0       0       0
  5709 ;;      Totals:         6       0       0       0       0
  5710 ;;Total ram usage:        6 bytes
  5711 ;; Hardware stack levels used: 1
  5712 ;; Hardware stack levels required when called: 1
  5713 ;; This function calls:
  5714 ;;		Nothing
  5715 ;; This function is called by:
  5716 ;;		_main
  5717 ;; This function uses a non-reentrant model
  5718 ;;
  5719                           
  5720     093F                     _read_digital_keypad:	
  5721                           ;psect for function _read_digital_keypad
  5722                           
  5723                           
  5724                           ;incstack = 0
  5725                           ; Regs used in _read_digital_keypad: [wreg+status,2+status,0+btemp+1]
  5726                           ;read_digital_keypad@mode stored from wreg
  5727     093F  00F6               	movwf	read_digital_keypad@mode
  5728     0940                     l4481:
  5729                           
  5730                           ;digital_keypad.c: 9:     static unsigned char key_state = 0x3F;;digital_keypad.c: 10:  
      +                             static int press_duration = 0;;digital_keypad.c: 11:     static unsigned char long_pr
      +                          ess_detected = 0;;digital_keypad.c: 12:     unsigned char key = PORTB & 0x3F;
  5731     0940  1283               	bcf	3,5	;RP0=0, select bank0
  5732     0941  1303               	bcf	3,6	;RP1=0, select bank0
  5733     0942  0806               	movf	6,w	;volatile
  5734     0943  393F               	andlw	63
  5735     0944  00F7               	movwf	read_digital_keypad@key
  5736     0945                     l4483:
  5737                           
  5738                           ;digital_keypad.c: 15:     _delay((unsigned long)((50)*(20000000/4000.0)));
  5739     0945  3002               	movlw	2
  5740     0946  00F4               	movwf	??_read_digital_keypad+2
  5741     0947  3045               	movlw	69
  5742     0948  00F3               	movwf	??_read_digital_keypad+1
  5743     0949  30A9               	movlw	169
  5744     094A  00F2               	movwf	??_read_digital_keypad
  5745     094B                     u5217:
  5746     094B  0BF2               	decfsz	??_read_digital_keypad,f
  5747     094C  294B               	goto	u5217
  5748     094D  0BF3               	decfsz	??_read_digital_keypad+1,f
  5749     094E  294B               	goto	u5217
  5750     094F  0BF4               	decfsz	??_read_digital_keypad+2,f
  5751     0950  294B               	goto	u5217
  5752     0951  2952               	nop2
  5753     0952                     l4485:
  5754                           
  5755                           ;digital_keypad.c: 17:     if (mode == 0) {
  5756     0952  0876               	movf	read_digital_keypad@mode,w
  5757     0953  1D03               	btfss	3,2
  5758     0954  2956               	goto	u4141
  5759     0955  2957               	goto	u4140
  5760     0956                     u4141:
  5761     0956  2959               	goto	l4493
  5762     0957                     u4140:
  5763     0957                     l4487:
  5764                           
  5765                           ;digital_keypad.c: 18:         return key;
  5766     0957  0877               	movf	read_digital_keypad@key,w
  5767     0958  29D3               	goto	l126
  5768     0959                     l4493:
  5769     0959  0376               	decf	read_digital_keypad@mode,w
  5770     095A  1D03               	btfss	3,2
  5771     095B  295D               	goto	u4151
  5772     095C  295E               	goto	u4150
  5773     095D                     u4151:
  5774     095D  299E               	goto	l4523
  5775     095E                     u4150:
  5776     095E                     l4495:
  5777                           
  5778                           ;digital_keypad.c: 20:         if (key != 0x3F && key_state == 0x3F)
  5779     095E  303F               	movlw	63
  5780     095F  0677               	xorwf	read_digital_keypad@key,w
  5781     0960  1903               	btfsc	3,2
  5782     0961  2963               	goto	u4161
  5783     0962  2964               	goto	u4160
  5784     0963                     u4161:
  5785     0963  2972               	goto	l4505
  5786     0964                     u4160:
  5787     0964                     l4497:
  5788     0964  303F               	movlw	63
  5789     0965  067B               	xorwf	read_digital_keypad@key_state,w
  5790     0966  1D03               	btfss	3,2
  5791     0967  2969               	goto	u4171
  5792     0968  296A               	goto	u4170
  5793     0969                     u4171:
  5794     0969  2972               	goto	l4505
  5795     096A                     u4170:
  5796     096A                     l4499:
  5797                           
  5798                           ;digital_keypad.c: 21:         {;digital_keypad.c: 22:             key_state = key;
  5799     096A  0877               	movf	read_digital_keypad@key,w
  5800     096B  00FB               	movwf	read_digital_keypad@key_state
  5801     096C                     l4501:
  5802                           
  5803                           ;digital_keypad.c: 23:             press_duration = 0;
  5804     096C  1283               	bcf	3,5	;RP0=0, select bank0
  5805     096D  1303               	bcf	3,6	;RP1=0, select bank0
  5806     096E  01B1               	clrf	read_digital_keypad@press_duration
  5807     096F  01B2               	clrf	read_digital_keypad@press_duration+1
  5808     0970                     l4503:
  5809                           
  5810                           ;digital_keypad.c: 24:             long_press_detected = 0;
  5811     0970  01FA               	clrf	read_digital_keypad@long_press_detected
  5812                           
  5813                           ;digital_keypad.c: 25:         } else if (key == 0x3F && key_state != 0x3F)
  5814     0971  29A0               	goto	l4527
  5815     0972                     l4505:
  5816     0972  303F               	movlw	63
  5817     0973  0677               	xorwf	read_digital_keypad@key,w
  5818     0974  1D03               	btfss	3,2
  5819     0975  2977               	goto	u4181
  5820     0976  2978               	goto	u4180
  5821     0977                     u4181:
  5822     0977  29A0               	goto	l4527
  5823     0978                     u4180:
  5824     0978                     l4507:
  5825     0978  303F               	movlw	63
  5826     0979  067B               	xorwf	read_digital_keypad@key_state,w
  5827     097A  1903               	btfsc	3,2
  5828     097B  297D               	goto	u4191
  5829     097C  297E               	goto	u4190
  5830     097D                     u4191:
  5831     097D  29A0               	goto	l4527
  5832     097E                     u4190:
  5833     097E                     l4509:
  5834                           
  5835                           ;digital_keypad.c: 26:         {;digital_keypad.c: 27:             if (press_duration < 
      +                          10 && !long_press_detected)
  5836     097E  1283               	bcf	3,5	;RP0=0, select bank0
  5837     097F  1303               	bcf	3,6	;RP1=0, select bank0
  5838     0980  0832               	movf	read_digital_keypad@press_duration+1,w
  5839     0981  3A80               	xorlw	128
  5840     0982  00FF               	movwf	btemp+1
  5841     0983  3080               	movlw	128
  5842     0984  027F               	subwf	btemp+1,w
  5843     0985  1D03               	skipz
  5844     0986  2989               	goto	u4205
  5845     0987  300A               	movlw	10
  5846     0988  0231               	subwf	read_digital_keypad@press_duration,w
  5847     0989                     u4205:
  5848     0989  1803               	skipnc
  5849     098A  298C               	goto	u4201
  5850     098B  298D               	goto	u4200
  5851     098C                     u4201:
  5852     098C  2998               	goto	l4519
  5853     098D                     u4200:
  5854     098D                     l4511:
  5855     098D  087A               	movf	read_digital_keypad@long_press_detected,w
  5856     098E  1D03               	btfss	3,2
  5857     098F  2991               	goto	u4211
  5858     0990  2992               	goto	u4210
  5859     0991                     u4211:
  5860     0991  2998               	goto	l4519
  5861     0992                     u4210:
  5862     0992                     l4513:
  5863                           
  5864                           ;digital_keypad.c: 28:             {;digital_keypad.c: 29:                 unsigned char
      +                           short_key_press = key_state;
  5865     0992  087B               	movf	read_digital_keypad@key_state,w
  5866     0993  00F5               	movwf	read_digital_keypad@short_key_press
  5867                           
  5868                           ;digital_keypad.c: 30:                 key_state = 0x3F;
  5869     0994  303F               	movlw	63
  5870     0995  00FB               	movwf	read_digital_keypad@key_state
  5871                           
  5872                           ;digital_keypad.c: 31:                 return short_key_press;
  5873     0996  0875               	movf	read_digital_keypad@short_key_press,w
  5874     0997  29D3               	goto	l126
  5875     0998                     l4519:
  5876                           
  5877                           ;digital_keypad.c: 33:             {;digital_keypad.c: 34:                 key_state = 0
      +                          x3F;
  5878     0998  303F               	movlw	63
  5879     0999  00FB               	movwf	read_digital_keypad@key_state
  5880     099A                     l4521:
  5881                           
  5882                           ;digital_keypad.c: 35:                 press_duration = 0;
  5883     099A  1283               	bcf	3,5	;RP0=0, select bank0
  5884     099B  1303               	bcf	3,6	;RP1=0, select bank0
  5885     099C  01B1               	clrf	read_digital_keypad@press_duration
  5886     099D  01B2               	clrf	read_digital_keypad@press_duration+1
  5887     099E                     l4523:
  5888                           
  5889                           ;digital_keypad.c: 36:                 return 0x3F;
  5890     099E  303F               	movlw	63
  5891     099F  29D3               	goto	l126
  5892     09A0                     l4527:
  5893                           
  5894                           ;digital_keypad.c: 40:         if (key_state != 0x3F)
  5895     09A0  303F               	movlw	63
  5896     09A1  067B               	xorwf	read_digital_keypad@key_state,w
  5897     09A2  1903               	btfsc	3,2
  5898     09A3  29A5               	goto	u4221
  5899     09A4  29A6               	goto	u4220
  5900     09A5                     u4221:
  5901     09A5  299E               	goto	l4523
  5902     09A6                     u4220:
  5903     09A6                     l4529:
  5904                           
  5905                           ;digital_keypad.c: 41:         {;digital_keypad.c: 42:             press_duration++;
  5906     09A6  3001               	movlw	1
  5907     09A7  1283               	bcf	3,5	;RP0=0, select bank0
  5908     09A8  1303               	bcf	3,6	;RP1=0, select bank0
  5909     09A9  07B1               	addwf	read_digital_keypad@press_duration,f
  5910     09AA  1803               	skipnc
  5911     09AB  0AB2               	incf	read_digital_keypad@press_duration+1,f
  5912     09AC  3000               	movlw	0
  5913     09AD  07B2               	addwf	read_digital_keypad@press_duration+1,f
  5914     09AE                     l4531:
  5915                           
  5916                           ;digital_keypad.c: 43:             if (press_duration >= 10)
  5917     09AE  0832               	movf	read_digital_keypad@press_duration+1,w
  5918     09AF  3A80               	xorlw	128
  5919     09B0  00FF               	movwf	btemp+1
  5920     09B1  3080               	movlw	128
  5921     09B2  027F               	subwf	btemp+1,w
  5922     09B3  1D03               	skipz
  5923     09B4  29B7               	goto	u4235
  5924     09B5  300A               	movlw	10
  5925     09B6  0231               	subwf	read_digital_keypad@press_duration,w
  5926     09B7                     u4235:
  5927     09B7  1C03               	skipc
  5928     09B8  29BA               	goto	u4231
  5929     09B9  29BB               	goto	u4230
  5930     09BA                     u4231:
  5931     09BA  299E               	goto	l4523
  5932     09BB                     u4230:
  5933     09BB                     l4533:
  5934                           
  5935                           ;digital_keypad.c: 44:             {;digital_keypad.c: 45:                 if (!long_pre
      +                          ss_detected)
  5936     09BB  087A               	movf	read_digital_keypad@long_press_detected,w
  5937     09BC  1D03               	btfss	3,2
  5938     09BD  29BF               	goto	u4241
  5939     09BE  29C0               	goto	u4240
  5940     09BF                     u4241:
  5941     09BF  299E               	goto	l4523
  5942     09C0                     u4240:
  5943     09C0                     l4535:
  5944                           
  5945                           ;digital_keypad.c: 46:                 {;digital_keypad.c: 47:                     long_
      +                          press_detected = 1;
  5946     09C0  01FA               	clrf	read_digital_keypad@long_press_detected
  5947     09C1  0AFA               	incf	read_digital_keypad@long_press_detected,f
  5948     09C2                     l4537:
  5949                           
  5950                           ;digital_keypad.c: 48:                     if (key_state == 0x37)
  5951     09C2  3037               	movlw	55
  5952     09C3  067B               	xorwf	read_digital_keypad@key_state,w
  5953     09C4  1D03               	btfss	3,2
  5954     09C5  29C7               	goto	u4251
  5955     09C6  29C8               	goto	u4250
  5956     09C7                     u4251:
  5957     09C7  29CA               	goto	l4545
  5958     09C8                     u4250:
  5959     09C8                     l4539:
  5960                           
  5961                           ;digital_keypad.c: 49:                     {;digital_keypad.c: 50:                      
      +                             return 0x80;
  5962     09C8  3080               	movlw	128
  5963     09C9  29D3               	goto	l126
  5964     09CA                     l4545:
  5965     09CA  302F               	movlw	47
  5966     09CB  067B               	xorwf	read_digital_keypad@key_state,w
  5967     09CC  1D03               	btfss	3,2
  5968     09CD  29CF               	goto	u4261
  5969     09CE  29D0               	goto	u4260
  5970     09CF                     u4261:
  5971     09CF  29D2               	goto	l135
  5972     09D0                     u4260:
  5973     09D0                     l4547:
  5974                           
  5975                           ;digital_keypad.c: 52:                     {;digital_keypad.c: 53:                      
      +                             return 0x90;
  5976     09D0  3090               	movlw	144
  5977     09D1  29D3               	goto	l126
  5978     09D2                     l135:	
  5979                           ;digital_keypad.c: 56:             }
  5980                           
  5981     09D2  299E               	goto	l4523
  5982     09D3                     l126:
  5983     09D3  0008               	return
  5984     09D4                     __end_of_read_digital_keypad:
  5985                           
  5986                           	psect	text11
  5987     1125                     __ptext11:	
  5988 ;; *************** function _read_adc *****************
  5989 ;; Defined at:
  5990 ;;		line 11 in file "adc.c"
  5991 ;; Parameters:    Size  Location     Type
  5992 ;;		None
  5993 ;; Auto vars:     Size  Location     Type
  5994 ;;  adc_reg_val     2    4[COMMON] unsigned short 
  5995 ;; Return value:  Size  Location     Type
  5996 ;;                  2    2[COMMON] unsigned short 
  5997 ;; Registers used:
  5998 ;;		wreg
  5999 ;; Tracked objects:
  6000 ;;		On entry : 0/0
  6001 ;;		On exit  : 0/0
  6002 ;;		Unchanged: 0/0
  6003 ;; Data sizes:     COMMON   BANK0   BANK1   BANK3   BANK2
  6004 ;;      Params:         2       0       0       0       0
  6005 ;;      Locals:         2       0       0       0       0
  6006 ;;      Temps:          0       0       0       0       0
  6007 ;;      Totals:         4       0       0       0       0
  6008 ;;Total ram usage:        4 bytes
  6009 ;; Hardware stack levels used: 1
  6010 ;; Hardware stack levels required when called: 1
  6011 ;; This function calls:
  6012 ;;		Nothing
  6013 ;; This function is called by:
  6014 ;;		_main
  6015 ;; This function uses a non-reentrant model
  6016 ;;
  6017                           
  6018     1125                     _read_adc:	
  6019                           ;psect for function _read_adc
  6020                           
  6021     1125                     l4555:	
  6022                           ;incstack = 0
  6023                           ; Regs used in _read_adc: [wreg]
  6024                           
  6025                           
  6026                           ;adc.c: 12:     unsigned short adc_reg_val;;adc.c: 15:     GO = 1;
  6027     1125  1283               	bcf	3,5	;RP0=0, select bank0
  6028     1126  1303               	bcf	3,6	;RP1=0, select bank0
  6029     1127  151F               	bsf	31,2	;volatile
  6030     1128                     l157:	
  6031                           ;adc.c: 18:     while (nDONE);
  6032                           
  6033     1128  191F               	btfsc	31,2	;volatile
  6034     1129  292B               	goto	u4271
  6035     112A  292C               	goto	u4270
  6036     112B                     u4271:
  6037     112B  2928               	goto	l157
  6038     112C                     u4270:
  6039     112C                     l4557:
  6040                           
  6041                           ;adc.c: 21:     adc_reg_val = (ADRESH << 8) | ADRESL;
  6042     112C  081E               	movf	30,w	;volatile
  6043     112D  00F5               	movwf	read_adc@adc_reg_val+1
  6044     112E  1683               	bsf	3,5	;RP0=1, select bank1
  6045     112F  1303               	bcf	3,6	;RP1=0, select bank1
  6046     1130  081E               	movf	30,w	;volatile
  6047     1131  00F4               	movwf	read_adc@adc_reg_val
  6048                           
  6049                           ;adc.c: 23:     return adc_reg_val;
  6050     1132  0875               	movf	read_adc@adc_reg_val+1,w
  6051     1133  00F3               	movwf	?_read_adc+1
  6052     1134  0874               	movf	read_adc@adc_reg_val,w
  6053     1135  00F2               	movwf	?_read_adc
  6054     1136                     l160:
  6055     1136  0008               	return
  6056     1137                     __end_of_read_adc:
  6057                           
  6058                           	psect	text12
  6059     0CDD                     __ptext12:	
  6060 ;; *************** function _password_change *****************
  6061 ;; Defined at:
  6062 ;;		line 522 in file "function_definitions.c"
  6063 ;; Parameters:    Size  Location     Type
  6064 ;;  key             1    wreg     unsigned char 
  6065 ;;  reset_flag      1    2[BANK0 ] unsigned char 
  6066 ;; Auto vars:     Size  Location     Type
  6067 ;;  key             1    6[BANK0 ] unsigned char 
  6068 ;; Return value:  Size  Location     Type
  6069 ;;                  1    wreg      unsigned char 
  6070 ;; Registers used:
  6071 ;;		wreg, fsr0l, fsr0h, status,2, status,0, btemp+1, pclath, cstack
  6072 ;; Tracked objects:
  6073 ;;		On entry : 0/0
  6074 ;;		On exit  : 0/0
  6075 ;;		Unchanged: 0/0
  6076 ;; Data sizes:     COMMON   BANK0   BANK1   BANK3   BANK2
  6077 ;;      Params:         0       1       0       0       0
  6078 ;;      Locals:         0       1       0       0       0
  6079 ;;      Temps:          0       3       0       0       0
  6080 ;;      Totals:         0       5       0       0       0
  6081 ;;Total ram usage:        5 bytes
  6082 ;; Hardware stack levels used: 1
  6083 ;; Hardware stack levels required when called: 5
  6084 ;; This function calls:
  6085 ;;		_clcd_print
  6086 ;;		_clcd_putch
  6087 ;;		_clcd_write
  6088 ;;		_clear_screen
  6089 ;;		_eeprom_write_string
  6090 ;;		_strncmp
  6091 ;; This function is called by:
  6092 ;;		_main
  6093 ;; This function uses a non-reentrant model
  6094 ;;
  6095                           
  6096     0CDD                     _password_change:	
  6097                           ;psect for function _password_change
  6098                           
  6099                           
  6100                           ;incstack = 0
  6101                           ; Regs used in _password_change: [wreg-fsr0h+status,2+status,0+btemp+1+pclath+cstack]
  6102                           ;password_change@key stored from wreg
  6103     0CDD  1283               	bcf	3,5	;RP0=0, select bank0
  6104     0CDE  1303               	bcf	3,6	;RP1=0, select bank0
  6105     0CDF  00CF               	movwf	password_change@key
  6106     0CE0                     l5059:
  6107                           
  6108                           ;function_definitions.c: 524:     static char usr_pwd[4];;function_definitions.c: 525:  
      +                             static char re_usr_pwd[4];;function_definitions.c: 526:     static char pwd_changed =
      +                           0;;function_definitions.c: 527:     static unsigned int pass_pos;;function_definitions.
      +                          c: 528:     static unsigned int re_pass_pos;;function_definitions.c: 529:     static uns
      +                          igned char stage = 0;;function_definitions.c: 532:     if (reset_flag == 0x02) {
  6109     0CE0  3002               	movlw	2
  6110     0CE1  064B               	xorwf	password_change@reset_flag,w
  6111     0CE2  1D03               	btfss	3,2
  6112     0CE3  2CE5               	goto	u4761
  6113     0CE4  2CE6               	goto	u4760
  6114     0CE5                     u4761:
  6115     0CE5  2CFC               	goto	l5067
  6116     0CE6                     u4760:
  6117     0CE6                     l5061:
  6118                           
  6119                           ;function_definitions.c: 533:         pass_pos = 0;
  6120     0CE6  01AD               	clrf	password_change@pass_pos
  6121     0CE7  01AE               	clrf	password_change@pass_pos+1
  6122                           
  6123                           ;function_definitions.c: 534:         re_pass_pos = 0;
  6124     0CE8  01AB               	clrf	password_change@re_pass_pos
  6125     0CE9  01AC               	clrf	password_change@re_pass_pos+1
  6126                           
  6127                           ;function_definitions.c: 535:         pwd_changed = 0;
  6128     0CEA  01B4               	clrf	password_change@pwd_changed
  6129                           
  6130                           ;function_definitions.c: 536:         stage = 0;
  6131     0CEB  01B3               	clrf	password_change@stage
  6132                           
  6133                           ;function_definitions.c: 539:         usr_pwd[0] = '\0';
  6134     0CEC  01C5               	clrf	password_change@usr_pwd
  6135                           
  6136                           ;function_definitions.c: 540:         usr_pwd[1] = '\0';
  6137     0CED  01C6               	clrf	password_change@usr_pwd+1
  6138                           
  6139                           ;function_definitions.c: 541:         usr_pwd[2] = '\0';
  6140     0CEE  01C7               	clrf	password_change@usr_pwd+2
  6141                           
  6142                           ;function_definitions.c: 542:         usr_pwd[3] = '\0';
  6143     0CEF  01C8               	clrf	password_change@usr_pwd+3
  6144                           
  6145                           ;function_definitions.c: 544:         re_usr_pwd[0] = '\0';
  6146     0CF0  1683               	bsf	3,5	;RP0=1, select bank1
  6147     0CF1  1303               	bcf	3,6	;RP1=0, select bank1
  6148     0CF2  01C4               	clrf	password_change@re_usr_pwd^(0+128)
  6149                           
  6150                           ;function_definitions.c: 545:         re_usr_pwd[1] = '\0';
  6151     0CF3  01C5               	clrf	(password_change@re_usr_pwd^(0+128)+1)
  6152                           
  6153                           ;function_definitions.c: 546:         re_usr_pwd[2] = '\0';
  6154     0CF4  01C6               	clrf	(password_change@re_usr_pwd^(0+128)+2)
  6155                           
  6156                           ;function_definitions.c: 547:         re_usr_pwd[3] = '\0';
  6157     0CF5  01C7               	clrf	(password_change@re_usr_pwd^(0+128)+3)
  6158     0CF6                     l5063:
  6159                           
  6160                           ;function_definitions.c: 549:         key = 0x3F;
  6161     0CF6  303F               	movlw	63
  6162     0CF7  1283               	bcf	3,5	;RP0=0, select bank0
  6163     0CF8  1303               	bcf	3,6	;RP1=0, select bank0
  6164     0CF9  00CF               	movwf	password_change@key
  6165     0CFA                     l5065:
  6166                           
  6167                           ;function_definitions.c: 550:         return_time = 5;
  6168     0CFA  3005               	movlw	5
  6169     0CFB  00BD               	movwf	_return_time
  6170     0CFC                     l5067:
  6171                           
  6172                           ;function_definitions.c: 554:     if (return_time == 0) {
  6173     0CFC  083D               	movf	_return_time,w
  6174     0CFD  1D03               	btfss	3,2
  6175     0CFE  2D00               	goto	u4771
  6176     0CFF  2D01               	goto	u4770
  6177     0D00                     u4771:
  6178     0D00  2D03               	goto	l5073
  6179     0D01                     u4770:
  6180     0D01                     l5069:
  6181                           
  6182                           ;function_definitions.c: 555:         return 0x33;
  6183     0D01  3033               	movlw	51
  6184     0D02  2E55               	goto	l466
  6185     0D03                     l5073:
  6186                           
  6187                           ;function_definitions.c: 559:     if (pwd_changed) {
  6188     0D03  0834               	movf	password_change@pwd_changed,w
  6189     0D04  1903               	btfsc	3,2
  6190     0D05  2D07               	goto	u4781
  6191     0D06  2D08               	goto	u4780
  6192     0D07                     u4781:
  6193     0D07  2D0A               	goto	l5079
  6194     0D08                     u4780:
  6195     0D08                     l5075:
  6196                           
  6197                           ;function_definitions.c: 560:         return 0x22;
  6198     0D08  3022               	movlw	34
  6199     0D09  2E55               	goto	l466
  6200     0D0A                     l5079:
  6201                           
  6202                           ;function_definitions.c: 564:     if (stage == 0) {
  6203     0D0A  0833               	movf	password_change@stage,w
  6204     0D0B  1D03               	btfss	3,2
  6205     0D0C  2D0E               	goto	u4791
  6206     0D0D  2D0F               	goto	u4790
  6207     0D0E                     u4791:
  6208     0D0E  2D8A               	goto	l5121
  6209     0D0F                     u4790:
  6210     0D0F                     l5081:
  6211                           
  6212                           ;function_definitions.c: 565:         if (key == 0x37 && pass_pos < 4) {
  6213     0D0F  3037               	movlw	55
  6214     0D10  064F               	xorwf	password_change@key,w
  6215     0D11  1D03               	btfss	3,2
  6216     0D12  2D14               	goto	u4801
  6217     0D13  2D15               	goto	u4800
  6218     0D14                     u4801:
  6219     0D14  2D38               	goto	l5093
  6220     0D15                     u4800:
  6221     0D15                     l5083:
  6222     0D15  3000               	movlw	0
  6223     0D16  022E               	subwf	password_change@pass_pos+1,w
  6224     0D17  3004               	movlw	4
  6225     0D18  1903               	skipnz
  6226     0D19  022D               	subwf	password_change@pass_pos,w
  6227     0D1A  1803               	skipnc
  6228     0D1B  2D1D               	goto	u4811
  6229     0D1C  2D1E               	goto	u4810
  6230     0D1D                     u4811:
  6231     0D1D  2D38               	goto	l5093
  6232     0D1E                     u4810:
  6233     0D1E                     l5085:
  6234                           
  6235                           ;function_definitions.c: 566:             usr_pwd[pass_pos] = '1';
  6236     0D1E  082D               	movf	password_change@pass_pos,w
  6237     0D1F  3E45               	addlw	(low (password_change@usr_pwd| 0))& (0+255)
  6238     0D20  0084               	movwf	4
  6239     0D21  3031               	movlw	49
  6240     0D22  1383               	bcf	3,7	;select IRP bank0
  6241     0D23  0080               	movwf	0
  6242     0D24                     l5087:
  6243                           
  6244                           ;function_definitions.c: 567:             clcd_putch('*', (0xC0 + 6 + pass_pos));
  6245     0D24  082D               	movf	password_change@pass_pos,w
  6246     0D25  3EC6               	addlw	198
  6247     0D26  00C9               	movwf	clcd_putch@addr
  6248     0D27  302A               	movlw	42
  6249     0D28  160A  118A  215D  120A  158A  	fcall	_clcd_putch
  6250     0D2D                     l5089:
  6251                           
  6252                           ;function_definitions.c: 568:             pass_pos++;
  6253     0D2D  3001               	movlw	1
  6254     0D2E  1283               	bcf	3,5	;RP0=0, select bank0
  6255     0D2F  1303               	bcf	3,6	;RP1=0, select bank0
  6256     0D30  07AD               	addwf	password_change@pass_pos,f
  6257     0D31  1803               	skipnc
  6258     0D32  0AAE               	incf	password_change@pass_pos+1,f
  6259     0D33  3000               	movlw	0
  6260     0D34  07AE               	addwf	password_change@pass_pos+1,f
  6261     0D35                     l5091:
  6262                           
  6263                           ;function_definitions.c: 569:             return_time = 5;
  6264     0D35  3005               	movlw	5
  6265     0D36  00BD               	movwf	_return_time
  6266                           
  6267                           ;function_definitions.c: 570:         } else if (key == 0x2F && pass_pos < 4) {
  6268     0D37  2D57               	goto	l5105
  6269     0D38                     l5093:
  6270     0D38  302F               	movlw	47
  6271     0D39  064F               	xorwf	password_change@key,w
  6272     0D3A  1D03               	btfss	3,2
  6273     0D3B  2D3D               	goto	u4821
  6274     0D3C  2D3E               	goto	u4820
  6275     0D3D                     u4821:
  6276     0D3D  2D57               	goto	l5105
  6277     0D3E                     u4820:
  6278     0D3E                     l5095:
  6279     0D3E  3000               	movlw	0
  6280     0D3F  022E               	subwf	password_change@pass_pos+1,w
  6281     0D40  3004               	movlw	4
  6282     0D41  1903               	skipnz
  6283     0D42  022D               	subwf	password_change@pass_pos,w
  6284     0D43  1803               	skipnc
  6285     0D44  2D46               	goto	u4831
  6286     0D45  2D47               	goto	u4830
  6287     0D46                     u4831:
  6288     0D46  2D57               	goto	l5105
  6289     0D47                     u4830:
  6290     0D47                     l5097:
  6291                           
  6292                           ;function_definitions.c: 571:             usr_pwd[pass_pos] = '0';
  6293     0D47  082D               	movf	password_change@pass_pos,w
  6294     0D48  3E45               	addlw	(low (password_change@usr_pwd| 0))& (0+255)
  6295     0D49  0084               	movwf	4
  6296     0D4A  3030               	movlw	48
  6297     0D4B  1383               	bcf	3,7	;select IRP bank0
  6298     0D4C  0080               	movwf	0
  6299     0D4D                     l5099:
  6300                           
  6301                           ;function_definitions.c: 572:             clcd_putch('*', (0xC0 + 6 + pass_pos));
  6302     0D4D  082D               	movf	password_change@pass_pos,w
  6303     0D4E  3EC6               	addlw	198
  6304     0D4F  00C9               	movwf	clcd_putch@addr
  6305     0D50  302A               	movlw	42
  6306     0D51  160A  118A  215D  120A  158A  	fcall	_clcd_putch
  6307     0D56  2D2D               	goto	l5089
  6308     0D57                     l5105:
  6309                           
  6310                           ;function_definitions.c: 578:         if (pass_pos == 4) {
  6311     0D57  3004               	movlw	4
  6312     0D58  062D               	xorwf	password_change@pass_pos,w
  6313     0D59  042E               	iorwf	password_change@pass_pos+1,w
  6314     0D5A  1D03               	btfss	3,2
  6315     0D5B  2D5D               	goto	u4841
  6316     0D5C  2D5E               	goto	u4840
  6317     0D5D                     u4841:
  6318     0D5D  2D08               	goto	l5075
  6319     0D5E                     u4840:
  6320     0D5E                     l5107:
  6321                           
  6322                           ;function_definitions.c: 579:             clear_screen();
  6323     0D5E  160A  118A  2114  120A  158A  	fcall	_clear_screen
  6324     0D63                     l5109:
  6325                           
  6326                           ;function_definitions.c: 580:             clcd_print("Re-enter new pwd", (0x80 + 0));
  6327     0D63  3059               	movlw	low (STR_47| (0+32768))
  6328     0D64  00F6               	movwf	clcd_print@str
  6329     0D65  3087               	movlw	high (STR_47| (0+32768))
  6330     0D66  00F7               	movwf	clcd_print@str+1
  6331     0D67  3080               	movlw	128
  6332     0D68  00F8               	movwf	clcd_print@addr
  6333     0D69  160A  118A  22F8  120A  158A  	fcall	_clcd_print
  6334     0D6E                     l5111:
  6335                           
  6336                           ;function_definitions.c: 581:             clcd_write((0xC0 + 5), 0);
  6337     0D6E  01F2               	clrf	clcd_write@mode
  6338     0D6F  30C5               	movlw	197
  6339     0D70  160A  118A  23BB  120A  158A  	fcall	_clcd_write
  6340     0D75                     l5113:
  6341                           
  6342                           ;function_definitions.c: 582:             clcd_write(0x0F, 0);
  6343     0D75  01F2               	clrf	clcd_write@mode
  6344     0D76  300F               	movlw	15
  6345     0D77  160A  118A  23BB  120A  158A  	fcall	_clcd_write
  6346     0D7C                     l5115:
  6347                           
  6348                           ;function_definitions.c: 583:             _delay((unsigned long)((100)*(20000000/4000000
      +                          .0)));
  6349     0D7C  30A5               	movlw	165
  6350     0D7D  1283               	bcf	3,5	;RP0=0, select bank0
  6351     0D7E  1303               	bcf	3,6	;RP1=0, select bank0
  6352     0D7F  00CC               	movwf	??_password_change
  6353     0D80                     u5227:
  6354     0D80  0BCC               	decfsz	??_password_change,f
  6355     0D81  2D80               	goto	u5227
  6356     0D82  2D83               	nop2
  6357     0D83                     l5117:
  6358                           
  6359                           ;function_definitions.c: 584:             stage = 1;
  6360     0D83  1283               	bcf	3,5	;RP0=0, select bank0
  6361     0D84  1303               	bcf	3,6	;RP1=0, select bank0
  6362     0D85  01B3               	clrf	password_change@stage
  6363     0D86  0AB3               	incf	password_change@stage,f
  6364     0D87                     l5119:
  6365                           
  6366                           ;function_definitions.c: 585:             re_pass_pos = 0;
  6367     0D87  01AB               	clrf	password_change@re_pass_pos
  6368     0D88  01AC               	clrf	password_change@re_pass_pos+1
  6369     0D89  2D08               	goto	l5075
  6370     0D8A                     l5121:
  6371     0D8A  0333               	decf	password_change@stage,w
  6372     0D8B  1D03               	btfss	3,2
  6373     0D8C  2D8E               	goto	u4851
  6374     0D8D  2D8F               	goto	u4850
  6375     0D8E                     u4851:
  6376     0D8E  2D08               	goto	l5075
  6377     0D8F                     u4850:
  6378     0D8F  2DBA               	goto	l5143
  6379     0D90                     l5125:
  6380                           
  6381                           ;function_definitions.c: 590:                 re_usr_pwd[re_pass_pos] = '0';
  6382     0D90  082B               	movf	password_change@re_pass_pos,w
  6383     0D91  3EC4               	addlw	(low (password_change@re_usr_pwd| 0))& (0+255)
  6384     0D92  0084               	movwf	4
  6385     0D93  3030               	movlw	48
  6386     0D94  1383               	bcf	3,7	;select IRP bank1
  6387     0D95  0080               	movwf	0
  6388     0D96                     l5127:
  6389                           
  6390                           ;function_definitions.c: 591:                 clcd_putch('*', (0xC0 + 6 + re_pass_pos));
  6391     0D96  082B               	movf	password_change@re_pass_pos,w
  6392     0D97  3EC6               	addlw	198
  6393     0D98  00C9               	movwf	clcd_putch@addr
  6394     0D99  302A               	movlw	42
  6395     0D9A  160A  118A  215D  120A  158A  	fcall	_clcd_putch
  6396     0D9F                     l5129:
  6397                           
  6398                           ;function_definitions.c: 592:                 re_pass_pos++;
  6399     0D9F  3001               	movlw	1
  6400     0DA0  1283               	bcf	3,5	;RP0=0, select bank0
  6401     0DA1  1303               	bcf	3,6	;RP1=0, select bank0
  6402     0DA2  07AB               	addwf	password_change@re_pass_pos,f
  6403     0DA3  1803               	skipnc
  6404     0DA4  0AAC               	incf	password_change@re_pass_pos+1,f
  6405     0DA5  3000               	movlw	0
  6406     0DA6  07AC               	addwf	password_change@re_pass_pos+1,f
  6407     0DA7                     l5131:
  6408                           
  6409                           ;function_definitions.c: 593:                 return_time = 5;
  6410     0DA7  3005               	movlw	5
  6411     0DA8  00BD               	movwf	_return_time
  6412                           
  6413                           ;function_definitions.c: 594:                 break;
  6414     0DA9  2DC2               	goto	l5145
  6415     0DAA                     l5133:
  6416                           
  6417                           ;function_definitions.c: 596:                 re_usr_pwd[re_pass_pos] = '1';
  6418     0DAA  082B               	movf	password_change@re_pass_pos,w
  6419     0DAB  3EC4               	addlw	(low (password_change@re_usr_pwd| 0))& (0+255)
  6420     0DAC  0084               	movwf	4
  6421     0DAD  3031               	movlw	49
  6422     0DAE  1383               	bcf	3,7	;select IRP bank1
  6423     0DAF  0080               	movwf	0
  6424     0DB0                     l5135:
  6425                           
  6426                           ;function_definitions.c: 597:                 clcd_putch('*', (0xC0 + 6 + re_pass_pos));
  6427     0DB0  082B               	movf	password_change@re_pass_pos,w
  6428     0DB1  3EC6               	addlw	198
  6429     0DB2  00C9               	movwf	clcd_putch@addr
  6430     0DB3  302A               	movlw	42
  6431     0DB4  160A  118A  215D  120A  158A  	fcall	_clcd_putch
  6432     0DB9  2D9F               	goto	l5129
  6433     0DBA                     l5143:
  6434     0DBA  084F               	movf	password_change@key,w
  6435                           
  6436                           ; Switch size 1, requested type "simple"
  6437                           ; Number of cases is 2, Range of values is 47 to 55
  6438                           ; switch strategies available:
  6439                           ; Name         Instructions Cycles
  6440                           ; simple_byte            7     4 (average)
  6441                           ; direct_byte           38    11 (fixed)
  6442                           ; jumptable            263     9 (fixed)
  6443                           ;	Chosen strategy is simple_byte
  6444     0DBB  3A2F               	xorlw	47	; case 47
  6445     0DBC  1903               	skipnz
  6446     0DBD  2D90               	goto	l5125
  6447     0DBE  3A18               	xorlw	24	; case 55
  6448     0DBF  1903               	skipnz
  6449     0DC0  2DAA               	goto	l5133
  6450     0DC1  2DC2               	goto	l5145
  6451     0DC2                     l5145:
  6452                           
  6453                           ;function_definitions.c: 604:         if (re_pass_pos == 4) {
  6454     0DC2  3004               	movlw	4
  6455     0DC3  062B               	xorwf	password_change@re_pass_pos,w
  6456     0DC4  042C               	iorwf	password_change@re_pass_pos+1,w
  6457     0DC5  1D03               	btfss	3,2
  6458     0DC6  2DC8               	goto	u4861
  6459     0DC7  2DC9               	goto	u4860
  6460     0DC8                     u4861:
  6461     0DC8  2D08               	goto	l5075
  6462     0DC9                     u4860:
  6463     0DC9                     l5147:
  6464                           
  6465                           ;function_definitions.c: 606:             if (strncmp(usr_pwd, re_usr_pwd, 4) == 0) {
  6466     0DC9  30C4               	movlw	(low (password_change@re_usr_pwd| 0))& (0+255)
  6467     0DCA  00F2               	movwf	strncmp@r
  6468     0DCB  3004               	movlw	4
  6469     0DCC  00F3               	movwf	strncmp@n
  6470     0DCD  3000               	movlw	0
  6471     0DCE  00F4               	movwf	strncmp@n+1
  6472     0DCF  3045               	movlw	(low (password_change@usr_pwd| 0))& (0+255)
  6473     0DD0  160A  118A  2588  120A  158A  	fcall	_strncmp
  6474     0DD5  0872               	movf	?_strncmp,w
  6475     0DD6  0473               	iorwf	?_strncmp+1,w
  6476     0DD7  1D03               	btfss	3,2
  6477     0DD8  2DDA               	goto	u4871
  6478     0DD9  2DDB               	goto	u4870
  6479     0DDA                     u4871:
  6480     0DDA  2E27               	goto	l5173
  6481     0DDB                     u4870:
  6482     0DDB                     l5149:
  6483                           
  6484                           ;function_definitions.c: 608:                 eeprom_write_string(0x00, &usr_pwd[4]);
  6485     0DDB  3049               	movlw	(low ((password_change@usr_pwd| 0+4)))& (0+255)
  6486     0DDC  00F5               	movwf	eeprom_write_string@data
  6487     0DDD  3000               	movlw	0
  6488     0DDE  00F6               	movwf	eeprom_write_string@data+1
  6489     0DDF  3000               	movlw	0
  6490     0DE0  160A  118A  22CB  120A  158A  	fcall	_eeprom_write_string
  6491     0DE5                     l5151:
  6492                           
  6493                           ;function_definitions.c: 609:                 pwd_changed = 1;
  6494     0DE5  1283               	bcf	3,5	;RP0=0, select bank0
  6495     0DE6  1303               	bcf	3,6	;RP1=0, select bank0
  6496     0DE7  01B4               	clrf	password_change@pwd_changed
  6497     0DE8  0AB4               	incf	password_change@pwd_changed,f
  6498     0DE9                     l5153:
  6499                           
  6500                           ;function_definitions.c: 610:                 clear_screen();
  6501     0DE9  160A  118A  2114  120A  158A  	fcall	_clear_screen
  6502     0DEE                     l5155:
  6503                           
  6504                           ;function_definitions.c: 611:                 clcd_write(0x0C, 0);
  6505     0DEE  01F2               	clrf	clcd_write@mode
  6506     0DEF  300C               	movlw	12
  6507     0DF0  160A  118A  23BB  120A  158A  	fcall	_clcd_write
  6508     0DF5                     l5157:
  6509                           
  6510                           ;function_definitions.c: 612:                 _delay((unsigned long)((100)*(20000000/400
      +                          0000.0)));
  6511     0DF5  30A5               	movlw	165
  6512     0DF6  1283               	bcf	3,5	;RP0=0, select bank0
  6513     0DF7  1303               	bcf	3,6	;RP1=0, select bank0
  6514     0DF8  00CC               	movwf	??_password_change
  6515     0DF9                     u5237:
  6516     0DF9  0BCC               	decfsz	??_password_change,f
  6517     0DFA  2DF9               	goto	u5237
  6518     0DFB  2DFC               	nop2
  6519     0DFC                     l5159:
  6520                           
  6521                           ;function_definitions.c: 613:                 clcd_print("Password changed", (0x80 + 0))
      +                          ;
  6522     0DFC  3048               	movlw	low (STR_48| (0+32768))
  6523     0DFD  00F6               	movwf	clcd_print@str
  6524     0DFE  3087               	movlw	high (STR_48| (0+32768))
  6525     0DFF  00F7               	movwf	clcd_print@str+1
  6526     0E00  3080               	movlw	128
  6527     0E01  00F8               	movwf	clcd_print@addr
  6528     0E02  160A  118A  22F8  120A  158A  	fcall	_clcd_print
  6529     0E07                     l5161:
  6530                           
  6531                           ;function_definitions.c: 614:                 clcd_print("successfully", (0xC0 + 2));
  6532     0E07  3058               	movlw	low (STR_34| (0+32768))
  6533     0E08  00F6               	movwf	clcd_print@str
  6534     0E09  3088               	movlw	high (STR_34| (0+32768))
  6535     0E0A  00F7               	movwf	clcd_print@str+1
  6536     0E0B  30C2               	movlw	194
  6537     0E0C  00F8               	movwf	clcd_print@addr
  6538     0E0D  160A  118A  22F8  120A  158A  	fcall	_clcd_print
  6539     0E12                     l5163:
  6540                           
  6541                           ;function_definitions.c: 615:                 _delay((unsigned long)((1000)*(20000000/40
      +                          00.0)));
  6542     0E12  301A               	movlw	26
  6543     0E13  1283               	bcf	3,5	;RP0=0, select bank0
  6544     0E14  1303               	bcf	3,6	;RP1=0, select bank0
  6545     0E15  00CE               	movwf	??_password_change+2
  6546     0E16  305E               	movlw	94
  6547     0E17  00CD               	movwf	??_password_change+1
  6548     0E18  306D               	movlw	109
  6549     0E19  00CC               	movwf	??_password_change
  6550     0E1A                     u5247:
  6551     0E1A  0BCC               	decfsz	??_password_change,f
  6552     0E1B  2E1A               	goto	u5247
  6553     0E1C  0BCD               	decfsz	??_password_change+1,f
  6554     0E1D  2E1A               	goto	u5247
  6555     0E1E  0BCE               	decfsz	??_password_change+2,f
  6556     0E1F  2E1A               	goto	u5247
  6557     0E20  2E21               	nop2
  6558     0E21                     l5165:
  6559                           
  6560                           ;function_definitions.c: 616:                 return_time = 15;
  6561     0E21  300F               	movlw	15
  6562     0E22  1283               	bcf	3,5	;RP0=0, select bank0
  6563     0E23  1303               	bcf	3,6	;RP1=0, select bank0
  6564     0E24  00BD               	movwf	_return_time
  6565     0E25                     l5167:
  6566                           
  6567                           ;function_definitions.c: 617:                 return 0x11;
  6568     0E25  3011               	movlw	17
  6569     0E26  2E55               	goto	l466
  6570     0E27                     l5173:
  6571                           
  6572                           ;function_definitions.c: 620:                 clear_screen();
  6573     0E27  160A  118A  2114  120A  158A  	fcall	_clear_screen
  6574                           
  6575                           ;function_definitions.c: 621:                 clcd_write(0x0C, 0);
  6576     0E2C  01F2               	clrf	clcd_write@mode
  6577     0E2D  300C               	movlw	12
  6578     0E2E  160A  118A  23BB  120A  158A  	fcall	_clcd_write
  6579     0E33                     l5175:
  6580                           
  6581                           ;function_definitions.c: 622:                 _delay((unsigned long)((100)*(20000000/400
      +                          0000.0)));
  6582     0E33  30A5               	movlw	165
  6583     0E34  1283               	bcf	3,5	;RP0=0, select bank0
  6584     0E35  1303               	bcf	3,6	;RP1=0, select bank0
  6585     0E36  00CC               	movwf	??_password_change
  6586     0E37                     u5257:
  6587     0E37  0BCC               	decfsz	??_password_change,f
  6588     0E38  2E37               	goto	u5257
  6589     0E39  2E3A               	nop2
  6590     0E3A                     l5177:
  6591                           
  6592                           ;function_definitions.c: 623:                 clcd_print("Password  change", (0x80 + 0))
      +                          ;
  6593     0E3A  306A               	movlw	low (STR_50| (0+32768))
  6594     0E3B  00F6               	movwf	clcd_print@str
  6595     0E3C  3087               	movlw	high (STR_50| (0+32768))
  6596     0E3D  00F7               	movwf	clcd_print@str+1
  6597     0E3E  3080               	movlw	128
  6598     0E3F  00F8               	movwf	clcd_print@addr
  6599     0E40  160A  118A  22F8  120A  158A  	fcall	_clcd_print
  6600     0E45                     l5179:
  6601                           
  6602                           ;function_definitions.c: 624:                 clcd_print("failed", (0xC0 + 5));
  6603     0E45  309F               	movlw	low (STR_51| (0+32768))
  6604     0E46  00F6               	movwf	clcd_print@str
  6605     0E47  3088               	movlw	high (STR_51| (0+32768))
  6606     0E48  00F7               	movwf	clcd_print@str+1
  6607     0E49  30C5               	movlw	197
  6608     0E4A  00F8               	movwf	clcd_print@addr
  6609     0E4B  160A  118A  22F8  120A  158A  	fcall	_clcd_print
  6610     0E50                     l5181:
  6611                           
  6612                           ;function_definitions.c: 625:                 pwd_changed = 1;
  6613     0E50  1283               	bcf	3,5	;RP0=0, select bank0
  6614     0E51  1303               	bcf	3,6	;RP1=0, select bank0
  6615     0E52  01B4               	clrf	password_change@pwd_changed
  6616     0E53  0AB4               	incf	password_change@pwd_changed,f
  6617     0E54  2E12               	goto	l5163
  6618     0E55                     l466:
  6619     0E55  0008               	return
  6620     0E56                     __end_of_password_change:
  6621                           
  6622                           	psect	text13
  6623     12CB                     __ptext13:	
  6624 ;; *************** function _eeprom_write_string *****************
  6625 ;; Defined at:
  6626 ;;		line 26 in file "External_EEPROM_AT24C04.c"
  6627 ;; Parameters:    Size  Location     Type
  6628 ;;  addr            1    wreg     unsigned char 
  6629 ;;  data            2    5[COMMON] PTR unsigned char 
  6630 ;;		 -> password_change@usr_pwd(4), records(11), STR_8(5), 
  6631 ;; Auto vars:     Size  Location     Type
  6632 ;;  addr            1    7[COMMON] unsigned char 
  6633 ;; Return value:  Size  Location     Type
  6634 ;;                  1    wreg      void 
  6635 ;; Registers used:
  6636 ;;		wreg, fsr0l, fsr0h, status,2, status,0, btemp+1, pclath, cstack
  6637 ;; Tracked objects:
  6638 ;;		On entry : 0/0
  6639 ;;		On exit  : 0/0
  6640 ;;		Unchanged: 0/0
  6641 ;; Data sizes:     COMMON   BANK0   BANK1   BANK3   BANK2
  6642 ;;      Params:         2       0       0       0       0
  6643 ;;      Locals:         1       0       0       0       0
  6644 ;;      Temps:          0       0       0       0       0
  6645 ;;      Totals:         3       0       0       0       0
  6646 ;;Total ram usage:        3 bytes
  6647 ;; Hardware stack levels used: 1
  6648 ;; Hardware stack levels required when called: 4
  6649 ;; This function calls:
  6650 ;;		_eeprom_write
  6651 ;; This function is called by:
  6652 ;;		_main
  6653 ;;		_store_records_EEPROM
  6654 ;;		_password_change
  6655 ;; This function uses a non-reentrant model
  6656 ;;
  6657                           
  6658     12CB                     _eeprom_write_string:	
  6659                           ;psect for function _eeprom_write_string
  6660                           
  6661                           
  6662                           ;incstack = 0
  6663                           ; Regs used in _eeprom_write_string: [wreg-fsr0h+status,2+status,0+btemp+1+pclath+cstack
      +                          ]
  6664                           ;eeprom_write_string@addr stored from wreg
  6665     12CB  00F7               	movwf	eeprom_write_string@addr
  6666     12CC                     l4151:
  6667                           
  6668                           ;External_EEPROM_AT24C04.c: 27:     while (*data != '\0') {
  6669     12CC  2AE7               	goto	l4159
  6670     12CD                     l4153:
  6671                           
  6672                           ;External_EEPROM_AT24C04.c: 28:         eeprom_write(addr, *data);
  6673     12CD  0876               	movf	eeprom_write_string@data+1,w
  6674     12CE  00FF               	movwf	btemp+1
  6675     12CF  0875               	movf	eeprom_write_string@data,w
  6676     12D0  0084               	movwf	4
  6677     12D1  160A  118A  2000  160A  118A  	fcall	stringtab
  6678     12D6  00F3               	movwf	eeprom_write@data
  6679     12D7  0877               	movf	eeprom_write_string@addr,w
  6680     12D8  160A  118A  21BE  160A  118A  	fcall	_eeprom_write
  6681     12DD                     l4155:
  6682                           
  6683                           ;External_EEPROM_AT24C04.c: 29:         data++;
  6684     12DD  3001               	movlw	1
  6685     12DE  07F5               	addwf	eeprom_write_string@data,f
  6686     12DF  1803               	skipnc
  6687     12E0  0AF6               	incf	eeprom_write_string@data+1,f
  6688     12E1  3000               	movlw	0
  6689     12E2  07F6               	addwf	eeprom_write_string@data+1,f
  6690     12E3                     l4157:
  6691                           
  6692                           ;External_EEPROM_AT24C04.c: 30:         addr++;
  6693     12E3  3001               	movlw	1
  6694     12E4  00FF               	movwf	btemp+1
  6695     12E5  087F               	movf	btemp+1,w
  6696     12E6  07F7               	addwf	eeprom_write_string@addr,f
  6697     12E7                     l4159:
  6698                           
  6699                           ;External_EEPROM_AT24C04.c: 27:     while (*data != '\0') {
  6700     12E7  0876               	movf	eeprom_write_string@data+1,w
  6701     12E8  1283               	bcf	3,5	;RP0=0, select bank0
  6702     12E9  1303               	bcf	3,6	;RP1=0, select bank0
  6703     12EA  00FF               	movwf	btemp+1
  6704     12EB  0875               	movf	eeprom_write_string@data,w
  6705     12EC  0084               	movwf	4
  6706     12ED  160A  118A  2000  160A  118A  	fcall	stringtab
  6707     12F2  3A00               	xorlw	0
  6708     12F3  1D03               	skipz
  6709     12F4  2AF6               	goto	u3501
  6710     12F5  2AF7               	goto	u3500
  6711     12F6                     u3501:
  6712     12F6  2ACD               	goto	l4153
  6713     12F7                     u3500:
  6714     12F7                     l506:
  6715     12F7  0008               	return
  6716     12F8                     __end_of_eeprom_write_string:
  6717                           
  6718                           	psect	text14
  6719     11BE                     __ptext14:	
  6720 ;; *************** function _eeprom_write *****************
  6721 ;; Defined at:
  6722 ;;		line 17 in file "External_EEPROM_AT24C04.c"
  6723 ;; Parameters:    Size  Location     Type
  6724 ;;  addr            1    wreg     unsigned char 
  6725 ;;  data            1    3[COMMON] unsigned char 
  6726 ;; Auto vars:     Size  Location     Type
  6727 ;;  addr            1    4[COMMON] unsigned char 
  6728 ;; Return value:  Size  Location     Type
  6729 ;;                  1    wreg      void 
  6730 ;; Registers used:
  6731 ;;		wreg, status,2, status,0, pclath, cstack
  6732 ;; Tracked objects:
  6733 ;;		On entry : 0/0
  6734 ;;		On exit  : 0/0
  6735 ;;		Unchanged: 0/0
  6736 ;; Data sizes:     COMMON   BANK0   BANK1   BANK3   BANK2
  6737 ;;      Params:         1       0       0       0       0
  6738 ;;      Locals:         1       0       0       0       0
  6739 ;;      Temps:          0       0       0       0       0
  6740 ;;      Totals:         2       0       0       0       0
  6741 ;;Total ram usage:        2 bytes
  6742 ;; Hardware stack levels used: 1
  6743 ;; Hardware stack levels required when called: 3
  6744 ;; This function calls:
  6745 ;;		_i2c_start
  6746 ;;		_i2c_stop
  6747 ;;		_i2c_write
  6748 ;; This function is called by:
  6749 ;;		_eeprom_write_string
  6750 ;; This function uses a non-reentrant model
  6751 ;;
  6752                           
  6753     11BE                     _eeprom_write:	
  6754                           ;psect for function _eeprom_write
  6755                           
  6756                           
  6757                           ;incstack = 0
  6758                           ; Regs used in _eeprom_write: [wreg+status,2+status,0+pclath+cstack]
  6759                           ;eeprom_write@addr stored from wreg
  6760     11BE  00F4               	movwf	eeprom_write@addr
  6761     11BF                     l4121:
  6762                           
  6763                           ;External_EEPROM_AT24C04.c: 17: void eeprom_write(unsigned char addr, unsigned char data
      +                          );External_EEPROM_AT24C04.c: 18: {;External_EEPROM_AT24C04.c: 19:     i2c_start();
  6764     11BF  160A  118A  20BC  160A  118A  	fcall	_i2c_start
  6765                           
  6766                           ;External_EEPROM_AT24C04.c: 20:     i2c_write(0xA0);
  6767     11C4  30A0               	movlw	160
  6768     11C5  160A  118A  20D9  160A  118A  	fcall	_i2c_write
  6769                           
  6770                           ;External_EEPROM_AT24C04.c: 21:     i2c_write(addr);
  6771     11CA  0874               	movf	eeprom_write@addr,w
  6772     11CB  160A  118A  20D9  160A  118A  	fcall	_i2c_write
  6773                           
  6774                           ;External_EEPROM_AT24C04.c: 22:     i2c_write(data);
  6775     11D0  0873               	movf	eeprom_write@data,w
  6776     11D1  160A  118A  20D9  160A  118A  	fcall	_i2c_write
  6777                           
  6778                           ;External_EEPROM_AT24C04.c: 23:     i2c_stop();
  6779     11D6  160A  118A  20C5  160A  118A  	fcall	_i2c_stop
  6780     11DB                     l500:
  6781     11DB  0008               	return
  6782     11DC                     __end_of_eeprom_write:
  6783                           
  6784                           	psect	text15
  6785     0E56                     __ptext15:	
  6786 ;; *************** function _login *****************
  6787 ;; Defined at:
  6788 ;;		line 101 in file "function_definitions.c"
  6789 ;; Parameters:    Size  Location     Type
  6790 ;;  key             1    wreg     unsigned char 
  6791 ;;  reset_flag      1    2[BANK0 ] unsigned char 
  6792 ;; Auto vars:     Size  Location     Type
  6793 ;;  key             1   10[BANK0 ] unsigned char 
  6794 ;;  j               2   11[BANK0 ] int 
  6795 ;;  saved_pwd       4    6[BANK0 ] unsigned char [4]
  6796 ;; Return value:  Size  Location     Type
  6797 ;;                  1    wreg      unsigned char 
  6798 ;; Registers used:
  6799 ;;		wreg, fsr0l, fsr0h, status,2, status,0, btemp+1, pclath, cstack
  6800 ;; Tracked objects:
  6801 ;;		On entry : 0/0
  6802 ;;		On exit  : 0/0
  6803 ;;		Unchanged: 0/0
  6804 ;; Data sizes:     COMMON   BANK0   BANK1   BANK3   BANK2
  6805 ;;      Params:         0       1       0       0       0
  6806 ;;      Locals:         0       7       0       0       0
  6807 ;;      Temps:          0       3       0       0       0
  6808 ;;      Totals:         0      11       0       0       0
  6809 ;;Total ram usage:       11 bytes
  6810 ;; Hardware stack levels used: 1
  6811 ;; Hardware stack levels required when called: 5
  6812 ;; This function calls:
  6813 ;;		___awdiv
  6814 ;;		___awmod
  6815 ;;		_clcd_print
  6816 ;;		_clcd_putch
  6817 ;;		_clcd_write
  6818 ;;		_clear_screen
  6819 ;;		_eeprom_read
  6820 ;;		_strncmp
  6821 ;; This function is called by:
  6822 ;;		_main
  6823 ;; This function uses a non-reentrant model
  6824 ;;
  6825                           
  6826     0E56                     _login:	
  6827                           ;psect for function _login
  6828                           
  6829                           
  6830                           ;incstack = 0
  6831                           ; Regs used in _login: [wreg-fsr0h+status,2+status,0+btemp+1+pclath+cstack]
  6832                           ;login@key stored from wreg
  6833     0E56  1283               	bcf	3,5	;RP0=0, select bank0
  6834     0E57  1303               	bcf	3,6	;RP1=0, select bank0
  6835     0E58  00D3               	movwf	login@key
  6836     0E59                     l4609:
  6837                           
  6838                           ;function_definitions.c: 103:     static char usr_pwd[4];;function_definitions.c: 104:  
      +                             static unsigned char i;;function_definitions.c: 105:     static unsigned char attempt
      +                          s_left;;function_definitions.c: 108:     if (reset_flag == 0x02) {
  6839     0E59  3002               	movlw	2
  6840     0E5A  064B               	xorwf	login@reset_flag,w
  6841     0E5B  1D03               	btfss	3,2
  6842     0E5C  2E5E               	goto	u4291
  6843     0E5D  2E5F               	goto	u4290
  6844     0E5E                     u4291:
  6845     0E5E  2E6E               	goto	l4627
  6846     0E5F                     u4290:
  6847     0E5F                     l4611:
  6848                           
  6849                           ;function_definitions.c: 109:         attempts_left = 3;
  6850     0E5F  3003               	movlw	3
  6851     0E60  00BA               	movwf	login@attempts_left
  6852     0E61                     l4613:
  6853                           
  6854                           ;function_definitions.c: 110:         i = 0;
  6855     0E61  01BB               	clrf	login@i
  6856     0E62                     l4615:
  6857                           
  6858                           ;function_definitions.c: 112:         usr_pwd[0] = '\0';
  6859     0E62  1683               	bsf	3,5	;RP0=1, select bank1
  6860     0E63  1303               	bcf	3,6	;RP1=0, select bank1
  6861     0E64  01C8               	clrf	login@usr_pwd^(0+128)
  6862     0E65                     l4617:
  6863                           
  6864                           ;function_definitions.c: 113:         usr_pwd[1] = '\0';
  6865     0E65  01C9               	clrf	(login@usr_pwd^(0+128)+1)
  6866     0E66                     l4619:
  6867                           
  6868                           ;function_definitions.c: 114:         usr_pwd[2] = '\0';
  6869     0E66  01CA               	clrf	(login@usr_pwd^(0+128)+2)
  6870     0E67                     l4621:
  6871                           
  6872                           ;function_definitions.c: 115:         usr_pwd[3] = '\0';
  6873     0E67  01CB               	clrf	(login@usr_pwd^(0+128)+3)
  6874     0E68                     l4623:
  6875                           
  6876                           ;function_definitions.c: 116:         key = 0x3F;
  6877     0E68  303F               	movlw	63
  6878     0E69  1283               	bcf	3,5	;RP0=0, select bank0
  6879     0E6A  1303               	bcf	3,6	;RP1=0, select bank0
  6880     0E6B  00D3               	movwf	login@key
  6881     0E6C                     l4625:
  6882                           
  6883                           ;function_definitions.c: 117:         return_time = 5;
  6884     0E6C  3005               	movlw	5
  6885     0E6D  00BD               	movwf	_return_time
  6886     0E6E                     l4627:
  6887                           
  6888                           ;function_definitions.c: 121:     if (return_time == 0) {
  6889     0E6E  083D               	movf	_return_time,w
  6890     0E6F  1D03               	btfss	3,2
  6891     0E70  2E72               	goto	u4301
  6892     0E71  2E73               	goto	u4300
  6893     0E72                     u4301:
  6894     0E72  2E75               	goto	l4633
  6895     0E73                     u4300:
  6896     0E73                     l4629:
  6897                           
  6898                           ;function_definitions.c: 123:         return 0x33;
  6899     0E73  3033               	movlw	51
  6900     0E74  2FFF               	goto	l361
  6901     0E75                     l4633:
  6902                           
  6903                           ;function_definitions.c: 127:     if (key == 0x37 && i < 4) {
  6904     0E75  3037               	movlw	55
  6905     0E76  0653               	xorwf	login@key,w
  6906     0E77  1D03               	btfss	3,2
  6907     0E78  2E7A               	goto	u4311
  6908     0E79  2E7B               	goto	u4310
  6909     0E7A                     u4311:
  6910     0E7A  2E99               	goto	l4645
  6911     0E7B                     u4310:
  6912     0E7B                     l4635:
  6913     0E7B  3004               	movlw	4
  6914     0E7C  023B               	subwf	login@i,w
  6915     0E7D  1803               	skipnc
  6916     0E7E  2E80               	goto	u4321
  6917     0E7F  2E81               	goto	u4320
  6918     0E80                     u4321:
  6919     0E80  2E99               	goto	l4645
  6920     0E81                     u4320:
  6921     0E81                     l4637:
  6922                           
  6923                           ;function_definitions.c: 128:         usr_pwd[i] = '1';
  6924     0E81  083B               	movf	login@i,w
  6925     0E82  3EC8               	addlw	(low (login@usr_pwd| 0))& (0+255)
  6926     0E83  0084               	movwf	4
  6927     0E84  3031               	movlw	49
  6928     0E85  1383               	bcf	3,7	;select IRP bank1
  6929     0E86  0080               	movwf	0
  6930     0E87                     l4639:
  6931                           
  6932                           ;function_definitions.c: 129:         clcd_putch('*', (0xC0 + 6 + i));
  6933     0E87  083B               	movf	login@i,w
  6934     0E88  3EC6               	addlw	198
  6935     0E89  00C9               	movwf	clcd_putch@addr
  6936     0E8A  302A               	movlw	42
  6937     0E8B  160A  118A  215D  120A  158A  	fcall	_clcd_putch
  6938     0E90                     l4641:
  6939                           
  6940                           ;function_definitions.c: 130:         i++;
  6941     0E90  3001               	movlw	1
  6942     0E91  00FF               	movwf	btemp+1
  6943     0E92  087F               	movf	btemp+1,w
  6944     0E93  1283               	bcf	3,5	;RP0=0, select bank0
  6945     0E94  1303               	bcf	3,6	;RP1=0, select bank0
  6946     0E95  07BB               	addwf	login@i,f
  6947     0E96                     l4643:
  6948                           
  6949                           ;function_definitions.c: 131:         return_time = 5;
  6950     0E96  3005               	movlw	5
  6951     0E97  00BD               	movwf	_return_time
  6952                           
  6953                           ;function_definitions.c: 132:     }
  6954     0E98  2EB5               	goto	l4657
  6955     0E99                     l4645:
  6956     0E99  302F               	movlw	47
  6957     0E9A  0653               	xorwf	login@key,w
  6958     0E9B  1D03               	btfss	3,2
  6959     0E9C  2E9E               	goto	u4331
  6960     0E9D  2E9F               	goto	u4330
  6961     0E9E                     u4331:
  6962     0E9E  2EB5               	goto	l4657
  6963     0E9F                     u4330:
  6964     0E9F                     l4647:
  6965     0E9F  3004               	movlw	4
  6966     0EA0  023B               	subwf	login@i,w
  6967     0EA1  1803               	skipnc
  6968     0EA2  2EA4               	goto	u4341
  6969     0EA3  2EA5               	goto	u4340
  6970     0EA4                     u4341:
  6971     0EA4  2EB5               	goto	l4657
  6972     0EA5                     u4340:
  6973     0EA5                     l4649:
  6974                           
  6975                           ;function_definitions.c: 134:         usr_pwd[i] = '0';
  6976     0EA5  083B               	movf	login@i,w
  6977     0EA6  3EC8               	addlw	(low (login@usr_pwd| 0))& (0+255)
  6978     0EA7  0084               	movwf	4
  6979     0EA8  3030               	movlw	48
  6980     0EA9  1383               	bcf	3,7	;select IRP bank1
  6981     0EAA  0080               	movwf	0
  6982     0EAB                     l4651:
  6983                           
  6984                           ;function_definitions.c: 135:         clcd_putch('*', (0xC0 + 6 + i));
  6985     0EAB  083B               	movf	login@i,w
  6986     0EAC  3EC6               	addlw	198
  6987     0EAD  00C9               	movwf	clcd_putch@addr
  6988     0EAE  302A               	movlw	42
  6989     0EAF  160A  118A  215D  120A  158A  	fcall	_clcd_putch
  6990     0EB4  2E90               	goto	l4641
  6991     0EB5                     l4657:
  6992                           
  6993                           ;function_definitions.c: 141:     if (i == 4) {
  6994     0EB5  3004               	movlw	4
  6995     0EB6  063B               	xorwf	login@i,w
  6996     0EB7  1D03               	btfss	3,2
  6997     0EB8  2EBA               	goto	u4351
  6998     0EB9  2EBB               	goto	u4350
  6999     0EBA                     u4351:
  7000     0EBA  2FFF               	goto	l361
  7001     0EBB                     u4350:
  7002     0EBB                     l4659:
  7003                           
  7004                           ;function_definitions.c: 142:         unsigned char saved_pwd[4];;function_definitions.c
      +                          : 143:         for (int j = 0; j < 4; j++) {
  7005     0EBB  01D4               	clrf	login@j
  7006     0EBC  01D5               	clrf	login@j+1
  7007     0EBD                     l4665:
  7008                           
  7009                           ;function_definitions.c: 144:             saved_pwd[j] = eeprom_read(j);
  7010     0EBD  1283               	bcf	3,5	;RP0=0, select bank0
  7011     0EBE  1303               	bcf	3,6	;RP1=0, select bank0
  7012     0EBF  0854               	movf	login@j,w
  7013     0EC0  3E4F               	addlw	(low (login@saved_pwd| 0))& (0+255)
  7014     0EC1  0084               	movwf	4
  7015     0EC2  0854               	movf	login@j,w
  7016     0EC3  160A  118A  22A0  120A  158A  	fcall	_eeprom_read
  7017     0EC8  1383               	bcf	3,7	;select IRP bank0
  7018     0EC9  0080               	movwf	0
  7019     0ECA                     l4667:
  7020                           
  7021                           ;function_definitions.c: 145:         }
  7022     0ECA  3001               	movlw	1
  7023     0ECB  1283               	bcf	3,5	;RP0=0, select bank0
  7024     0ECC  1303               	bcf	3,6	;RP1=0, select bank0
  7025     0ECD  07D4               	addwf	login@j,f
  7026     0ECE  1803               	skipnc
  7027     0ECF  0AD5               	incf	login@j+1,f
  7028     0ED0  3000               	movlw	0
  7029     0ED1  07D5               	addwf	login@j+1,f
  7030     0ED2                     l4669:
  7031     0ED2  0855               	movf	login@j+1,w
  7032     0ED3  3A80               	xorlw	128
  7033     0ED4  00FF               	movwf	btemp+1
  7034     0ED5  3080               	movlw	128
  7035     0ED6  027F               	subwf	btemp+1,w
  7036     0ED7  1D03               	skipz
  7037     0ED8  2EDB               	goto	u4365
  7038     0ED9  3004               	movlw	4
  7039     0EDA  0254               	subwf	login@j,w
  7040     0EDB                     u4365:
  7041     0EDB  1C03               	skipc
  7042     0EDC  2EDE               	goto	u4361
  7043     0EDD  2EDF               	goto	u4360
  7044     0EDE                     u4361:
  7045     0EDE  2EBD               	goto	l4665
  7046     0EDF                     u4360:
  7047     0EDF                     l4671:
  7048                           
  7049                           ;function_definitions.c: 147:         if (strncmp(usr_pwd, saved_pwd, 4) == 0) {
  7050     0EDF  304F               	movlw	(low (login@saved_pwd| 0))& (0+255)
  7051     0EE0  00F2               	movwf	strncmp@r
  7052     0EE1  3004               	movlw	4
  7053     0EE2  00F3               	movwf	strncmp@n
  7054     0EE3  3000               	movlw	0
  7055     0EE4  00F4               	movwf	strncmp@n+1
  7056     0EE5  30C8               	movlw	(low (login@usr_pwd| 0))& (0+255)
  7057     0EE6  160A  118A  2588  120A  158A  	fcall	_strncmp
  7058     0EEB  0872               	movf	?_strncmp,w
  7059     0EEC  0473               	iorwf	?_strncmp+1,w
  7060     0EED  1D03               	btfss	3,2
  7061     0EEE  2EF0               	goto	u4371
  7062     0EEF  2EF1               	goto	u4370
  7063     0EF0                     u4371:
  7064     0EF0  2F1F               	goto	l4687
  7065     0EF1                     u4370:
  7066     0EF1                     l4673:
  7067                           
  7068                           ;function_definitions.c: 148:             clear_screen();
  7069     0EF1  160A  118A  2114  120A  158A  	fcall	_clear_screen
  7070                           
  7071                           ;function_definitions.c: 149:             clcd_write(0x0C, 0);
  7072     0EF6  01F2               	clrf	clcd_write@mode
  7073     0EF7  300C               	movlw	12
  7074     0EF8  160A  118A  23BB  120A  158A  	fcall	_clcd_write
  7075     0EFD                     l4675:
  7076                           
  7077                           ;function_definitions.c: 150:             _delay((unsigned long)((100)*(20000000/4000000
      +                          .0)));
  7078     0EFD  30A5               	movlw	165
  7079     0EFE  1283               	bcf	3,5	;RP0=0, select bank0
  7080     0EFF  1303               	bcf	3,6	;RP1=0, select bank0
  7081     0F00  00CC               	movwf	??_login
  7082     0F01                     u5267:
  7083     0F01  0BCC               	decfsz	??_login,f
  7084     0F02  2F01               	goto	u5267
  7085     0F03  2F04               	nop2
  7086     0F04                     l4677:
  7087                           
  7088                           ;function_definitions.c: 151:             clcd_print("Login Success", (0x80 + 2));
  7089     0F04  3008               	movlw	low (STR_25| (0+32768))
  7090     0F05  00F6               	movwf	clcd_print@str
  7091     0F06  3088               	movlw	high (STR_25| (0+32768))
  7092     0F07  00F7               	movwf	clcd_print@str+1
  7093     0F08  3082               	movlw	130
  7094     0F09  00F8               	movwf	clcd_print@addr
  7095     0F0A  160A  118A  22F8  120A  158A  	fcall	_clcd_print
  7096     0F0F                     l4679:
  7097                           
  7098                           ;function_definitions.c: 152:             _delay((unsigned long)((2000)*(20000000/4000.0
      +                          )));
  7099     0F0F  3033               	movlw	51
  7100     0F10  1283               	bcf	3,5	;RP0=0, select bank0
  7101     0F11  1303               	bcf	3,6	;RP1=0, select bank0
  7102     0F12  00CE               	movwf	??_login+2
  7103     0F13  30BB               	movlw	187
  7104     0F14  00CD               	movwf	??_login+1
  7105     0F15  30DF               	movlw	223
  7106     0F16  00CC               	movwf	??_login
  7107     0F17                     u5277:
  7108     0F17  0BCC               	decfsz	??_login,f
  7109     0F18  2F17               	goto	u5277
  7110     0F19  0BCD               	decfsz	??_login+1,f
  7111     0F1A  2F17               	goto	u5277
  7112     0F1B  0BCE               	decfsz	??_login+2,f
  7113     0F1C  2F17               	goto	u5277
  7114     0F1D                     l4681:
  7115                           
  7116                           ;function_definitions.c: 153:             return 0x01;
  7117     0F1D  3001               	movlw	1
  7118     0F1E  2FFF               	goto	l361
  7119     0F1F                     l4687:
  7120                           
  7121                           ;function_definitions.c: 155:             attempts_left--;
  7122     0F1F  3001               	movlw	1
  7123     0F20  1283               	bcf	3,5	;RP0=0, select bank0
  7124     0F21  1303               	bcf	3,6	;RP1=0, select bank0
  7125     0F22  02BA               	subwf	login@attempts_left,f
  7126                           
  7127                           ;function_definitions.c: 157:             if (attempts_left == 0) {
  7128     0F23  083A               	movf	login@attempts_left,w
  7129     0F24  1D03               	btfss	3,2
  7130     0F25  2F27               	goto	u4381
  7131     0F26  2F28               	goto	u4380
  7132     0F27                     u4381:
  7133     0F27  2F98               	goto	l4705
  7134     0F28                     u4380:
  7135     0F28                     l4689:
  7136                           
  7137                           ;function_definitions.c: 159:                 clear_screen();
  7138     0F28  160A  118A  2114  120A  158A  	fcall	_clear_screen
  7139                           
  7140                           ;function_definitions.c: 160:                 clcd_write(0x0C, 0);
  7141     0F2D  01F2               	clrf	clcd_write@mode
  7142     0F2E  300C               	movlw	12
  7143     0F2F  160A  118A  23BB  120A  158A  	fcall	_clcd_write
  7144     0F34                     l4691:
  7145                           
  7146                           ;function_definitions.c: 161:                 clcd_print("You are Blocked", (0x80 + 0));
  7147     0F34  30AD               	movlw	low (STR_26| (0+32768))
  7148     0F35  00F6               	movwf	clcd_print@str
  7149     0F36  3087               	movlw	high (STR_26| (0+32768))
  7150     0F37  00F7               	movwf	clcd_print@str+1
  7151     0F38  3080               	movlw	128
  7152     0F39  00F8               	movwf	clcd_print@addr
  7153     0F3A  160A  118A  22F8  120A  158A  	fcall	_clcd_print
  7154     0F3F                     l4693:
  7155                           
  7156                           ;function_definitions.c: 163:                 clcd_print("Wait for...", (0xC0 + 0));
  7157     0F3F  3065               	movlw	low (STR_27| (0+32768))
  7158     0F40  00F6               	movwf	clcd_print@str
  7159     0F41  3088               	movlw	high (STR_27| (0+32768))
  7160     0F42  00F7               	movwf	clcd_print@str+1
  7161     0F43  30C0               	movlw	192
  7162     0F44  00F8               	movwf	clcd_print@addr
  7163     0F45  160A  118A  22F8  120A  158A  	fcall	_clcd_print
  7164     0F4A                     l4695:
  7165                           
  7166                           ;function_definitions.c: 164:                 clcd_print("sec", (0xC0 + 13));
  7167     0F4A  30AB               	movlw	low (STR_28| (0+32768))
  7168     0F4B  00F6               	movwf	clcd_print@str
  7169     0F4C  3088               	movlw	high (STR_28| (0+32768))
  7170     0F4D  00F7               	movwf	clcd_print@str+1
  7171     0F4E  30CD               	movlw	205
  7172     0F4F  00F8               	movwf	clcd_print@addr
  7173     0F50  160A  118A  22F8  120A  158A  	fcall	_clcd_print
  7174     0F55                     l4697:
  7175                           
  7176                           ;function_definitions.c: 165:                 sec = 60;
  7177     0F55  303C               	movlw	60
  7178     0F56  1283               	bcf	3,5	;RP0=0, select bank0
  7179     0F57  1303               	bcf	3,6	;RP1=0, select bank0
  7180     0F58  00BC               	movwf	_sec
  7181                           
  7182                           ;function_definitions.c: 166:                 while (sec) {
  7183     0F59  2F8E               	goto	l4701
  7184     0F5A                     l4699:
  7185                           
  7186                           ;function_definitions.c: 167:                     clcd_putch(sec / 10 + '0', (0xC0 + 11)
      +                          );
  7187     0F5A  30CB               	movlw	203
  7188     0F5B  00C9               	movwf	clcd_putch@addr
  7189     0F5C  300A               	movlw	10
  7190     0F5D  00F2               	movwf	___awdiv@divisor
  7191     0F5E  3000               	movlw	0
  7192     0F5F  00F3               	movwf	___awdiv@divisor+1
  7193     0F60  083C               	movf	_sec,w
  7194     0F61  00CC               	movwf	??_login
  7195     0F62  01CD               	clrf	??_login+1
  7196     0F63  084C               	movf	??_login,w
  7197     0F64  00F4               	movwf	___awdiv@dividend
  7198     0F65  084D               	movf	??_login+1,w
  7199     0F66  00F5               	movwf	___awdiv@dividend+1
  7200     0F67  160A  118A  2799  120A  158A  	fcall	___awdiv
  7201     0F6C  0872               	movf	?___awdiv,w
  7202     0F6D  3E30               	addlw	48
  7203     0F6E  160A  118A  215D  120A  158A  	fcall	_clcd_putch
  7204                           
  7205                           ;function_definitions.c: 168:                     clcd_putch(sec % 10 + '0', (0xC0 + 12)
      +                          );
  7206     0F73  30CC               	movlw	204
  7207     0F74  1283               	bcf	3,5	;RP0=0, select bank0
  7208     0F75  1303               	bcf	3,6	;RP1=0, select bank0
  7209     0F76  00C9               	movwf	clcd_putch@addr
  7210     0F77  300A               	movlw	10
  7211     0F78  00F2               	movwf	___awmod@divisor
  7212     0F79  3000               	movlw	0
  7213     0F7A  00F3               	movwf	___awmod@divisor+1
  7214     0F7B  083C               	movf	_sec,w
  7215     0F7C  00CC               	movwf	??_login
  7216     0F7D  01CD               	clrf	??_login+1
  7217     0F7E  084C               	movf	??_login,w
  7218     0F7F  00F4               	movwf	___awmod@dividend
  7219     0F80  084D               	movf	??_login+1,w
  7220     0F81  00F5               	movwf	___awmod@dividend+1
  7221     0F82  160A  118A  26DD  120A  158A  	fcall	___awmod
  7222     0F87  0872               	movf	?___awmod,w
  7223     0F88  3E30               	addlw	48
  7224     0F89  160A  118A  215D  120A  158A  	fcall	_clcd_putch
  7225     0F8E                     l4701:
  7226                           
  7227                           ;function_definitions.c: 166:                 while (sec) {
  7228     0F8E  1283               	bcf	3,5	;RP0=0, select bank0
  7229     0F8F  1303               	bcf	3,6	;RP1=0, select bank0
  7230     0F90  083C               	movf	_sec,w
  7231     0F91  1D03               	btfss	3,2
  7232     0F92  2F94               	goto	u4391
  7233     0F93  2F95               	goto	u4390
  7234     0F94                     u4391:
  7235     0F94  2F5A               	goto	l4699
  7236     0F95                     u4390:
  7237     0F95                     l4703:
  7238                           
  7239                           ;function_definitions.c: 170:                 attempts_left = 3;
  7240     0F95  3003               	movlw	3
  7241     0F96  00BA               	movwf	login@attempts_left
  7242                           
  7243                           ;function_definitions.c: 171:             } else {
  7244     0F97  2FD3               	goto	l4713
  7245     0F98                     l4705:
  7246                           
  7247                           ;function_definitions.c: 172:                 clear_screen();
  7248     0F98  160A  118A  2114  120A  158A  	fcall	_clear_screen
  7249                           
  7250                           ;function_definitions.c: 173:                 clcd_write(0x0C, 0);
  7251     0F9D  01F2               	clrf	clcd_write@mode
  7252     0F9E  300C               	movlw	12
  7253     0F9F  160A  118A  23BB  120A  158A  	fcall	_clcd_write
  7254     0FA4                     l4707:
  7255                           
  7256                           ;function_definitions.c: 174:                 clcd_print("Wrong Password", (0x80 + 0));
  7257     0FA4  30CD               	movlw	low (STR_29| (0+32768))
  7258     0FA5  00F6               	movwf	clcd_print@str
  7259     0FA6  3087               	movlw	high (STR_29| (0+32768))
  7260     0FA7  00F7               	movwf	clcd_print@str+1
  7261     0FA8  3080               	movlw	128
  7262     0FA9  00F8               	movwf	clcd_print@addr
  7263     0FAA  160A  118A  22F8  120A  158A  	fcall	_clcd_print
  7264     0FAF                     l4709:
  7265                           
  7266                           ;function_definitions.c: 175:                 clcd_putch(attempts_left + '0', (0xC0 + 0)
      +                          );
  7267     0FAF  30C0               	movlw	192
  7268     0FB0  1283               	bcf	3,5	;RP0=0, select bank0
  7269     0FB1  1303               	bcf	3,6	;RP1=0, select bank0
  7270     0FB2  00C9               	movwf	clcd_putch@addr
  7271     0FB3  083A               	movf	login@attempts_left,w
  7272     0FB4  3E30               	addlw	48
  7273     0FB5  160A  118A  215D  120A  158A  	fcall	_clcd_putch
  7274                           
  7275                           ;function_definitions.c: 176:                 clcd_print("attempts left", (0xC0 + 2));
  7276     0FBA  3016               	movlw	low (STR_30| (0+32768))
  7277     0FBB  00F6               	movwf	clcd_print@str
  7278     0FBC  3088               	movlw	high (STR_30| (0+32768))
  7279     0FBD  00F7               	movwf	clcd_print@str+1
  7280     0FBE  30C2               	movlw	194
  7281     0FBF  00F8               	movwf	clcd_print@addr
  7282     0FC0  160A  118A  22F8  120A  158A  	fcall	_clcd_print
  7283     0FC5                     l4711:
  7284                           
  7285                           ;function_definitions.c: 177:                 _delay((unsigned long)((2000)*(20000000/40
      +                          00.0)));
  7286     0FC5  3033               	movlw	51
  7287     0FC6  1283               	bcf	3,5	;RP0=0, select bank0
  7288     0FC7  1303               	bcf	3,6	;RP1=0, select bank0
  7289     0FC8  00CE               	movwf	??_login+2
  7290     0FC9  30BB               	movlw	187
  7291     0FCA  00CD               	movwf	??_login+1
  7292     0FCB  30DF               	movlw	223
  7293     0FCC  00CC               	movwf	??_login
  7294     0FCD                     u5287:
  7295     0FCD  0BCC               	decfsz	??_login,f
  7296     0FCE  2FCD               	goto	u5287
  7297     0FCF  0BCD               	decfsz	??_login+1,f
  7298     0FD0  2FCD               	goto	u5287
  7299     0FD1  0BCE               	decfsz	??_login+2,f
  7300     0FD2  2FCD               	goto	u5287
  7301     0FD3                     l4713:
  7302                           
  7303                           ;function_definitions.c: 180:             clear_screen();
  7304     0FD3  160A  118A  2114  120A  158A  	fcall	_clear_screen
  7305     0FD8                     l4715:
  7306                           
  7307                           ;function_definitions.c: 181:             return_time = 5;
  7308     0FD8  3005               	movlw	5
  7309     0FD9  1283               	bcf	3,5	;RP0=0, select bank0
  7310     0FDA  1303               	bcf	3,6	;RP1=0, select bank0
  7311     0FDB  00BD               	movwf	_return_time
  7312     0FDC                     l4717:
  7313                           
  7314                           ;function_definitions.c: 182:             clcd_print("Enter Password", (0x80 + 1));
  7315     0FDC  30EB               	movlw	low (STR_10| (0+32768))
  7316     0FDD  00F6               	movwf	clcd_print@str
  7317     0FDE  3087               	movlw	high (STR_10| (0+32768))
  7318     0FDF  00F7               	movwf	clcd_print@str+1
  7319     0FE0  3081               	movlw	129
  7320     0FE1  00F8               	movwf	clcd_print@addr
  7321     0FE2  160A  118A  22F8  120A  158A  	fcall	_clcd_print
  7322                           
  7323                           ;function_definitions.c: 183:             clcd_write((0xC0 + 5), 0);
  7324     0FE7  01F2               	clrf	clcd_write@mode
  7325     0FE8  30C5               	movlw	197
  7326     0FE9  160A  118A  23BB  120A  158A  	fcall	_clcd_write
  7327                           
  7328                           ;function_definitions.c: 184:             clcd_write(0x0F, 0);
  7329     0FEE  01F2               	clrf	clcd_write@mode
  7330     0FEF  300F               	movlw	15
  7331     0FF0  160A  118A  23BB  120A  158A  	fcall	_clcd_write
  7332     0FF5                     l4719:
  7333                           
  7334                           ;function_definitions.c: 185:             _delay((unsigned long)((100)*(20000000/4000000
      +                          .0)));
  7335     0FF5  30A5               	movlw	165
  7336     0FF6  1283               	bcf	3,5	;RP0=0, select bank0
  7337     0FF7  1303               	bcf	3,6	;RP1=0, select bank0
  7338     0FF8  00CC               	movwf	??_login
  7339     0FF9                     u5297:
  7340     0FF9  0BCC               	decfsz	??_login,f
  7341     0FFA  2FF9               	goto	u5297
  7342     0FFB  2FFC               	nop2
  7343     0FFC                     l4721:
  7344                           
  7345                           ;function_definitions.c: 186:             i = 0;
  7346     0FFC  1283               	bcf	3,5	;RP0=0, select bank0
  7347     0FFD  1303               	bcf	3,6	;RP1=0, select bank0
  7348     0FFE  01BB               	clrf	login@i
  7349     0FFF                     l361:
  7350     0FFF  0008               	return
  7351     1000                     __end_of_login:
  7352                           
  7353                           	psect	text16
  7354     1588                     __ptext16:	
  7355 ;; *************** function _strncmp *****************
  7356 ;; Defined at:
  7357 ;;		line 3 in file "C:\Program Files\Microchip\xc8\v2.46\pic\sources\c99\common\strncmp.c"
  7358 ;; Parameters:    Size  Location     Type
  7359 ;;  l               1    wreg     PTR const unsigned char 
  7360 ;;		 -> password_change@usr_pwd(4), login@usr_pwd(4), 
  7361 ;;  r               1    2[COMMON] PTR const unsigned char 
  7362 ;;		 -> password_change@re_usr_pwd(4), login@saved_pwd(4), 
  7363 ;;  n               2    3[COMMON] unsigned int 
  7364 ;; Auto vars:     Size  Location     Type
  7365 ;;  l               1    7[COMMON] PTR const unsigned char 
  7366 ;;		 -> password_change@usr_pwd(4), login@usr_pwd(4), 
  7367 ;; Return value:  Size  Location     Type
  7368 ;;                  2    2[COMMON] int 
  7369 ;; Registers used:
  7370 ;;		wreg, fsr0l, fsr0h, status,2, status,0, btemp+1
  7371 ;; Tracked objects:
  7372 ;;		On entry : 0/0
  7373 ;;		On exit  : 0/0
  7374 ;;		Unchanged: 0/0
  7375 ;; Data sizes:     COMMON   BANK0   BANK1   BANK3   BANK2
  7376 ;;      Params:         3       0       0       0       0
  7377 ;;      Locals:         1       0       0       0       0
  7378 ;;      Temps:          2       0       0       0       0
  7379 ;;      Totals:         6       0       0       0       0
  7380 ;;Total ram usage:        6 bytes
  7381 ;; Hardware stack levels used: 1
  7382 ;; Hardware stack levels required when called: 1
  7383 ;; This function calls:
  7384 ;;		Nothing
  7385 ;; This function is called by:
  7386 ;;		_login
  7387 ;;		_password_change
  7388 ;; This function uses a non-reentrant model
  7389 ;;
  7390                           
  7391     1588                     _strncmp:	
  7392                           ;psect for function _strncmp
  7393                           
  7394                           
  7395                           ;incstack = 0
  7396                           ; Regs used in _strncmp: [wreg-fsr0h+status,2+status,0+btemp+1]
  7397                           ;strncmp@l stored from wreg
  7398     1588  00F7               	movwf	strncmp@l
  7399     1589                     l4315:
  7400     1589  3001               	movlw	1
  7401     158A  02F3               	subwf	strncmp@n,f
  7402     158B  3000               	movlw	0
  7403     158C  1C03               	skipc
  7404     158D  03F4               	decf	strncmp@n+1,f
  7405     158E  02F4               	subwf	strncmp@n+1,f
  7406     158F  0A73               	incf	strncmp@n,w
  7407     1590  1D03               	skipz
  7408     1591  2D96               	goto	u3731
  7409     1592  0A74               	incf	strncmp@n+1,w
  7410     1593  1D03               	btfss	3,2
  7411     1594  2D96               	goto	u3731
  7412     1595  2D97               	goto	u3730
  7413     1596                     u3731:
  7414     1596  2DA8               	goto	l4325
  7415     1597                     u3730:
  7416     1597                     l4317:
  7417     1597  01F2               	clrf	?_strncmp
  7418     1598  01F3               	clrf	?_strncmp+1
  7419     1599  2DD7               	goto	l1134
  7420     159A                     l4321:
  7421     159A  3001               	movlw	1
  7422     159B  00FF               	movwf	btemp+1
  7423     159C  087F               	movf	btemp+1,w
  7424     159D  07F7               	addwf	strncmp@l,f
  7425     159E  3001               	movlw	1
  7426     159F  00FF               	movwf	btemp+1
  7427     15A0  087F               	movf	btemp+1,w
  7428     15A1  07F2               	addwf	strncmp@r,f
  7429     15A2                     l4323:
  7430     15A2  3001               	movlw	1
  7431     15A3  02F3               	subwf	strncmp@n,f
  7432     15A4  3000               	movlw	0
  7433     15A5  1C03               	skipc
  7434     15A6  03F4               	decf	strncmp@n+1,f
  7435     15A7  02F4               	subwf	strncmp@n+1,f
  7436     15A8                     l4325:
  7437     15A8  0877               	movf	strncmp@l,w
  7438     15A9  0084               	movwf	4
  7439     15AA  1383               	bcf	3,7	;select IRP bank0
  7440     15AB  0800               	movf	0,w
  7441     15AC  1903               	btfsc	3,2
  7442     15AD  2DAF               	goto	u3741
  7443     15AE  2DB0               	goto	u3740
  7444     15AF                     u3741:
  7445     15AF  2DC9               	goto	l4333
  7446     15B0                     u3740:
  7447     15B0                     l4327:
  7448     15B0  0872               	movf	strncmp@r,w
  7449     15B1  0084               	movwf	4
  7450     15B2  0800               	movf	0,w
  7451     15B3  1903               	btfsc	3,2
  7452     15B4  2DB6               	goto	u3751
  7453     15B5  2DB7               	goto	u3750
  7454     15B6                     u3751:
  7455     15B6  2DC9               	goto	l4333
  7456     15B7                     u3750:
  7457     15B7                     l4329:
  7458     15B7  0873               	movf	strncmp@n,w
  7459     15B8  0474               	iorwf	strncmp@n+1,w
  7460     15B9  1903               	btfsc	3,2
  7461     15BA  2DBC               	goto	u3761
  7462     15BB  2DBD               	goto	u3760
  7463     15BC                     u3761:
  7464     15BC  2DC9               	goto	l4333
  7465     15BD                     u3760:
  7466     15BD                     l4331:
  7467     15BD  0872               	movf	strncmp@r,w
  7468     15BE  0084               	movwf	4
  7469     15BF  0800               	movf	0,w
  7470     15C0  00F5               	movwf	??_strncmp
  7471     15C1  0877               	movf	strncmp@l,w
  7472     15C2  0084               	movwf	4
  7473     15C3  0800               	movf	0,w
  7474     15C4  0675               	xorwf	??_strncmp,w
  7475     15C5  1903               	skipnz
  7476     15C6  2DC8               	goto	u3771
  7477     15C7  2DC9               	goto	u3770
  7478     15C8                     u3771:
  7479     15C8  2D9A               	goto	l4321
  7480     15C9                     u3770:
  7481     15C9                     l4333:
  7482     15C9  0872               	movf	strncmp@r,w
  7483     15CA  0084               	movwf	4
  7484     15CB  0800               	movf	0,w
  7485     15CC  00F5               	movwf	??_strncmp
  7486     15CD  0877               	movf	strncmp@l,w
  7487     15CE  0084               	movwf	4
  7488     15CF  0800               	movf	0,w
  7489     15D0  00F6               	movwf	??_strncmp+1
  7490     15D1  0875               	movf	??_strncmp,w
  7491     15D2  0276               	subwf	??_strncmp+1,w
  7492     15D3  00F2               	movwf	?_strncmp
  7493     15D4  01F3               	clrf	?_strncmp+1
  7494     15D5  1C03               	skipc
  7495     15D6  03F3               	decf	?_strncmp+1,f
  7496     15D7                     l1134:
  7497     15D7  0008               	return
  7498     15D8                     __end_of_strncmp:
  7499                           
  7500                           	psect	text17
  7501     146A                     __ptext17:	
  7502 ;; *************** function _init_config *****************
  7503 ;; Defined at:
  7504 ;;		line 14 in file "main.c"
  7505 ;; Parameters:    Size  Location     Type
  7506 ;;		None
  7507 ;; Auto vars:     Size  Location     Type
  7508 ;;		None
  7509 ;; Return value:  Size  Location     Type
  7510 ;;                  1    wreg      void 
  7511 ;; Registers used:
  7512 ;;		wreg, fsr0l, fsr0h, status,2, status,0, btemp+1, pclath, cstack
  7513 ;; Tracked objects:
  7514 ;;		On entry : 0/0
  7515 ;;		On exit  : 0/0
  7516 ;;		Unchanged: 0/0
  7517 ;; Data sizes:     COMMON   BANK0   BANK1   BANK3   BANK2
  7518 ;;      Params:         0       0       0       0       0
  7519 ;;      Locals:         0       0       0       0       0
  7520 ;;      Temps:          0       0       0       0       0
  7521 ;;      Totals:         0       0       0       0       0
  7522 ;;Total ram usage:        0 bytes
  7523 ;; Hardware stack levels used: 1
  7524 ;; Hardware stack levels required when called: 6
  7525 ;; This function calls:
  7526 ;;		_init_adc
  7527 ;;		_init_clcd
  7528 ;;		_init_digital_keypad
  7529 ;;		_init_ds1307
  7530 ;;		_init_i2c
  7531 ;;		_init_timer2
  7532 ;;		_init_uart
  7533 ;;		_puts
  7534 ;; This function is called by:
  7535 ;;		_main
  7536 ;; This function uses a non-reentrant model
  7537 ;;
  7538                           
  7539     146A                     _init_config:	
  7540                           ;psect for function _init_config
  7541                           
  7542     146A                     l4561:	
  7543                           ;incstack = 0
  7544                           ; Regs used in _init_config: [wreg-fsr0h+status,2+status,0+btemp+1+pclath+cstack]
  7545                           
  7546                           
  7547                           ;main.c: 17: 
  7548     146A  3000               	movlw	0
  7549     146B  1283               	bcf	3,5	;RP0=0, select bank0
  7550     146C  1303               	bcf	3,6	;RP1=0, select bank0
  7551     146D  00D2               	movwf	init_i2c@baud+3
  7552     146E  3001               	movlw	1
  7553     146F  00D1               	movwf	init_i2c@baud+2
  7554     1470  3086               	movlw	134
  7555     1471  00D0               	movwf	init_i2c@baud+1
  7556     1472  30A0               	movlw	160
  7557     1473  00CF               	movwf	init_i2c@baud
  7558     1474  160A  118A  2389  160A  118A  	fcall	_init_i2c
  7559     1479                     l4563:
  7560                           
  7561                           ;main.c: 20: 
  7562     1479  160A  118A  2137  160A  118A  	fcall	_init_ds1307
  7563     147E                     l4565:
  7564                           
  7565                           ;main.c: 23:     PEIE = 1;
  7566     147E  160A  118A  20EF  160A  118A  	fcall	_init_clcd
  7567     1483                     l4567:
  7568                           
  7569                           ;main.c: 26:     init_uart(9600);
  7570     1483  160A  118A  20A7  160A  118A  	fcall	_init_digital_keypad
  7571     1488                     l4569:
  7572                           
  7573                           ;main.c: 29: }
  7574     1488  160A  118A  20AD  160A  118A  	fcall	_init_adc
  7575     148D                     l4571:
  7576                           
  7577                           ;main.c: 32:     init_config();
  7578     148D  160A  118A  2107  160A  118A  	fcall	_init_timer2
  7579     1492                     l4573:
  7580                           
  7581                           ;main.c: 33:     char event[3] = "ON";
  7582     1492  178B               	bsf	11,7	;volatile
  7583     1493                     l4575:
  7584                           
  7585                           ;main.c: 34:     unsigned char speed = 0, key, gr = 0;
  7586     1493  170B               	bsf	11,6	;volatile
  7587     1494                     l4577:
  7588                           
  7589                           ;main.c: 37:     eeprom_write_string(0x00, "1010");
  7590     1494  3000               	movlw	0
  7591     1495  1283               	bcf	3,5	;RP0=0, select bank0
  7592     1496  1303               	bcf	3,6	;RP1=0, select bank0
  7593     1497  00D2               	movwf	init_uart@baud+3
  7594     1498  3000               	movlw	0
  7595     1499  00D1               	movwf	init_uart@baud+2
  7596     149A  3025               	movlw	37
  7597     149B  00D0               	movwf	init_uart@baud+1
  7598     149C  3080               	movlw	128
  7599     149D  00CF               	movwf	init_uart@baud
  7600     149E  160A  118A  2327  160A  118A  	fcall	_init_uart
  7601     14A3                     l4579:
  7602                           
  7603                           ;main.c: 39: 
  7604     14A3  307B               	movlw	low (STR_7| (0+32768))
  7605     14A4  00F3               	movwf	puts@s
  7606     14A5  3087               	movlw	high (STR_7| (0+32768))
  7607     14A6  00F4               	movwf	puts@s+1
  7608     14A7  160A  118A  2224  160A  118A  	fcall	_puts
  7609     14AC                     l221:
  7610     14AC  0008               	return
  7611     14AD                     __end_of_init_config:
  7612                           
  7613                           	psect	text18
  7614     1327                     __ptext18:	
  7615 ;; *************** function _init_uart *****************
  7616 ;; Defined at:
  7617 ;;		line 3 in file "uart.c"
  7618 ;; Parameters:    Size  Location     Type
  7619 ;;  baud            4    6[BANK0 ] unsigned long 
  7620 ;; Auto vars:     Size  Location     Type
  7621 ;;		None
  7622 ;; Return value:  Size  Location     Type
  7623 ;;                  1    wreg      void 
  7624 ;; Registers used:
  7625 ;;		wreg, status,2, status,0, btemp+1, pclath, cstack
  7626 ;; Tracked objects:
  7627 ;;		On entry : 0/0
  7628 ;;		On exit  : 0/0
  7629 ;;		Unchanged: 0/0
  7630 ;; Data sizes:     COMMON   BANK0   BANK1   BANK3   BANK2
  7631 ;;      Params:         0       4       0       0       0
  7632 ;;      Locals:         0       0       0       0       0
  7633 ;;      Temps:          0       4       0       0       0
  7634 ;;      Totals:         0       8       0       0       0
  7635 ;;Total ram usage:        8 bytes
  7636 ;; Hardware stack levels used: 1
  7637 ;; Hardware stack levels required when called: 2
  7638 ;; This function calls:
  7639 ;;		___lldiv
  7640 ;; This function is called by:
  7641 ;;		_init_config
  7642 ;; This function uses a non-reentrant model
  7643 ;;
  7644                           
  7645     1327                     _init_uart:	
  7646                           ;psect for function _init_uart
  7647                           
  7648     1327                     l4261:	
  7649                           ;incstack = 0
  7650                           ; Regs used in _init_uart: [wreg+status,2+status,0+btemp+1+pclath+cstack]
  7651                           
  7652                           
  7653                           ;uart.c: 5:     SPEN = 1;
  7654     1327  1283               	bcf	3,5	;RP0=0, select bank0
  7655     1328  1303               	bcf	3,6	;RP1=0, select bank0
  7656     1329  1798               	bsf	24,7	;volatile
  7657                           
  7658                           ;uart.c: 8:     CREN = 1;
  7659     132A  1618               	bsf	24,4	;volatile
  7660     132B                     l4263:
  7661                           
  7662                           ;uart.c: 11:     SPBRG = (20000000 / (16 * baud)) - 1;
  7663     132B  084F               	movf	init_uart@baud,w
  7664     132C  00D3               	movwf	??_init_uart
  7665     132D  0850               	movf	init_uart@baud+1,w
  7666     132E  00D4               	movwf	??_init_uart+1
  7667     132F  0851               	movf	init_uart@baud+2,w
  7668     1330  00D5               	movwf	??_init_uart+2
  7669     1331  0852               	movf	init_uart@baud+3,w
  7670     1332  00D6               	movwf	??_init_uart+3
  7671     1333  3004               	movlw	4
  7672     1334                     u3665:
  7673     1334  1003               	clrc
  7674     1335  0DD3               	rlf	??_init_uart,f
  7675     1336  0DD4               	rlf	??_init_uart+1,f
  7676     1337  0DD5               	rlf	??_init_uart+2,f
  7677     1338  0DD6               	rlf	??_init_uart+3,f
  7678     1339                     u3660:
  7679     1339  3EFF               	addlw	-1
  7680     133A  1D03               	skipz
  7681     133B  2B34               	goto	u3665
  7682     133C  0856               	movf	??_init_uart+3,w
  7683     133D  00F5               	movwf	___lldiv@divisor+3
  7684     133E  0855               	movf	??_init_uart+2,w
  7685     133F  00F4               	movwf	___lldiv@divisor+2
  7686     1340  0854               	movf	??_init_uart+1,w
  7687     1341  00F3               	movwf	___lldiv@divisor+1
  7688     1342  0853               	movf	??_init_uart,w
  7689     1343  00F2               	movwf	___lldiv@divisor
  7690     1344  3001               	movlw	1
  7691     1345  00F9               	movwf	___lldiv@dividend+3
  7692     1346  3031               	movlw	49
  7693     1347  00F8               	movwf	___lldiv@dividend+2
  7694     1348  302D               	movlw	45
  7695     1349  00F7               	movwf	___lldiv@dividend+1
  7696     134A  3000               	movlw	0
  7697     134B  00F6               	movwf	___lldiv@dividend
  7698     134C  120A  158A  20D7  160A  118A  	fcall	___lldiv
  7699     1351  0872               	movf	?___lldiv,w
  7700     1352  3EFF               	addlw	255
  7701     1353  1683               	bsf	3,5	;RP0=1, select bank1
  7702     1354  1303               	bcf	3,6	;RP1=0, select bank1
  7703     1355  0099               	movwf	25	;volatile
  7704     1356                     l564:
  7705     1356  0008               	return
  7706     1357                     __end_of_init_uart:
  7707                           
  7708                           	psect	text19
  7709     1107                     __ptext19:	
  7710 ;; *************** function _init_timer2 *****************
  7711 ;; Defined at:
  7712 ;;		line 16 in file "timers.c"
  7713 ;; Parameters:    Size  Location     Type
  7714 ;;		None
  7715 ;; Auto vars:     Size  Location     Type
  7716 ;;		None
  7717 ;; Return value:  Size  Location     Type
  7718 ;;                  1    wreg      void 
  7719 ;; Registers used:
  7720 ;;		wreg
  7721 ;; Tracked objects:
  7722 ;;		On entry : 0/0
  7723 ;;		On exit  : 0/0
  7724 ;;		Unchanged: 0/0
  7725 ;; Data sizes:     COMMON   BANK0   BANK1   BANK3   BANK2
  7726 ;;      Params:         0       0       0       0       0
  7727 ;;      Locals:         0       0       0       0       0
  7728 ;;      Temps:          0       0       0       0       0
  7729 ;;      Totals:         0       0       0       0       0
  7730 ;;Total ram usage:        0 bytes
  7731 ;; Hardware stack levels used: 1
  7732 ;; Hardware stack levels required when called: 1
  7733 ;; This function calls:
  7734 ;;		Nothing
  7735 ;; This function is called by:
  7736 ;;		_init_config
  7737 ;; This function uses a non-reentrant model
  7738 ;;
  7739                           
  7740     1107                     _init_timer2:	
  7741                           ;psect for function _init_timer2
  7742                           
  7743     1107                     l4253:	
  7744                           ;incstack = 0
  7745                           ; Regs used in _init_timer2: [wreg]
  7746                           
  7747                           
  7748                           ;timers.c: 18:     T2CKPS0 = 1;
  7749     1107  1283               	bcf	3,5	;RP0=0, select bank0
  7750     1108  1303               	bcf	3,6	;RP1=0, select bank0
  7751     1109  1412               	bsf	18,0	;volatile
  7752                           
  7753                           ;timers.c: 19:     T2CKPS1 = 1;
  7754     110A  1492               	bsf	18,1	;volatile
  7755     110B                     l4255:
  7756                           
  7757                           ;timers.c: 22:     PR2 = 250;
  7758     110B  30FA               	movlw	250
  7759     110C  1683               	bsf	3,5	;RP0=1, select bank1
  7760     110D  1303               	bcf	3,6	;RP1=0, select bank1
  7761     110E  0092               	movwf	18	;volatile
  7762     110F                     l4257:
  7763                           
  7764                           ;timers.c: 25:     TMR2IE = 1;
  7765     110F  148C               	bsf	12,1	;volatile
  7766     1110                     l4259:
  7767                           
  7768                           ;timers.c: 28:     TMR2ON = 0;
  7769     1110  1283               	bcf	3,5	;RP0=0, select bank0
  7770     1111  1303               	bcf	3,6	;RP1=0, select bank0
  7771     1112  1112               	bcf	18,2	;volatile
  7772     1113                     l530:
  7773     1113  0008               	return
  7774     1114                     __end_of_init_timer2:
  7775                           
  7776                           	psect	text20
  7777     1389                     __ptext20:	
  7778 ;; *************** function _init_i2c *****************
  7779 ;; Defined at:
  7780 ;;		line 3 in file "i2c.c"
  7781 ;; Parameters:    Size  Location     Type
  7782 ;;  baud            4    6[BANK0 ] unsigned long 
  7783 ;; Auto vars:     Size  Location     Type
  7784 ;;		None
  7785 ;; Return value:  Size  Location     Type
  7786 ;;                  1    wreg      void 
  7787 ;; Registers used:
  7788 ;;		wreg, status,2, status,0, btemp+1, pclath, cstack
  7789 ;; Tracked objects:
  7790 ;;		On entry : 0/0
  7791 ;;		On exit  : 0/0
  7792 ;;		Unchanged: 0/0
  7793 ;; Data sizes:     COMMON   BANK0   BANK1   BANK3   BANK2
  7794 ;;      Params:         0       4       0       0       0
  7795 ;;      Locals:         0       0       0       0       0
  7796 ;;      Temps:          0       4       0       0       0
  7797 ;;      Totals:         0       8       0       0       0
  7798 ;;Total ram usage:        8 bytes
  7799 ;; Hardware stack levels used: 1
  7800 ;; Hardware stack levels required when called: 2
  7801 ;; This function calls:
  7802 ;;		___lldiv
  7803 ;; This function is called by:
  7804 ;;		_init_config
  7805 ;; This function uses a non-reentrant model
  7806 ;;
  7807                           
  7808     1389                     _init_i2c:	
  7809                           ;psect for function _init_i2c
  7810                           
  7811     1389                     l4243:	
  7812                           ;incstack = 0
  7813                           ; Regs used in _init_i2c: [wreg+status,2+status,0+btemp+1+pclath+cstack]
  7814                           
  7815                           
  7816                           ;i2c.c: 5:     SSPM3 = 1;
  7817     1389  1283               	bcf	3,5	;RP0=0, select bank0
  7818     138A  1303               	bcf	3,6	;RP1=0, select bank0
  7819     138B  1594               	bsf	20,3	;volatile
  7820     138C                     l4245:
  7821                           
  7822                           ;i2c.c: 8:     SSPADD = (unsigned char) (20000000 / (4 * baud)) - 1;
  7823     138C  084F               	movf	init_i2c@baud,w
  7824     138D  00D3               	movwf	??_init_i2c
  7825     138E  0850               	movf	init_i2c@baud+1,w
  7826     138F  00D4               	movwf	??_init_i2c+1
  7827     1390  0851               	movf	init_i2c@baud+2,w
  7828     1391  00D5               	movwf	??_init_i2c+2
  7829     1392  0852               	movf	init_i2c@baud+3,w
  7830     1393  00D6               	movwf	??_init_i2c+3
  7831     1394  3002               	movlw	2
  7832     1395                     u3655:
  7833     1395  1003               	clrc
  7834     1396  0DD3               	rlf	??_init_i2c,f
  7835     1397  0DD4               	rlf	??_init_i2c+1,f
  7836     1398  0DD5               	rlf	??_init_i2c+2,f
  7837     1399  0DD6               	rlf	??_init_i2c+3,f
  7838     139A                     u3650:
  7839     139A  3EFF               	addlw	-1
  7840     139B  1D03               	skipz
  7841     139C  2B95               	goto	u3655
  7842     139D  0856               	movf	??_init_i2c+3,w
  7843     139E  00F5               	movwf	___lldiv@divisor+3
  7844     139F  0855               	movf	??_init_i2c+2,w
  7845     13A0  00F4               	movwf	___lldiv@divisor+2
  7846     13A1  0854               	movf	??_init_i2c+1,w
  7847     13A2  00F3               	movwf	___lldiv@divisor+1
  7848     13A3  0853               	movf	??_init_i2c,w
  7849     13A4  00F2               	movwf	___lldiv@divisor
  7850     13A5  3001               	movlw	1
  7851     13A6  00F9               	movwf	___lldiv@dividend+3
  7852     13A7  3031               	movlw	49
  7853     13A8  00F8               	movwf	___lldiv@dividend+2
  7854     13A9  302D               	movlw	45
  7855     13AA  00F7               	movwf	___lldiv@dividend+1
  7856     13AB  3000               	movlw	0
  7857     13AC  00F6               	movwf	___lldiv@dividend
  7858     13AD  120A  158A  20D7  160A  118A  	fcall	___lldiv
  7859     13B2  0872               	movf	?___lldiv,w
  7860     13B3  3EFF               	addlw	255
  7861     13B4  1683               	bsf	3,5	;RP0=1, select bank1
  7862     13B5  1303               	bcf	3,6	;RP1=0, select bank1
  7863     13B6  0093               	movwf	19	;volatile
  7864     13B7                     l4247:
  7865                           
  7866                           ;i2c.c: 11:     SSPEN = 1;
  7867     13B7  1283               	bcf	3,5	;RP0=0, select bank0
  7868     13B8  1303               	bcf	3,6	;RP1=0, select bank0
  7869     13B9  1694               	bsf	20,5	;volatile
  7870     13BA                     l84:
  7871     13BA  0008               	return
  7872     13BB                     __end_of_init_i2c:
  7873                           
  7874                           	psect	text21
  7875     08D7                     __ptext21:	
  7876 ;; *************** function ___lldiv *****************
  7877 ;; Defined at:
  7878 ;;		line 5 in file "C:\Program Files\Microchip\xc8\v2.46\pic\sources\c99\common\__lldiv.c"
  7879 ;; Parameters:    Size  Location     Type
  7880 ;;  divisor         4    2[COMMON] unsigned long 
  7881 ;;  dividend        4    6[COMMON] unsigned long 
  7882 ;; Auto vars:     Size  Location     Type
  7883 ;;  quotient        4    1[BANK0 ] unsigned long 
  7884 ;;  counter         1    5[BANK0 ] unsigned char 
  7885 ;; Return value:  Size  Location     Type
  7886 ;;                  4    2[COMMON] unsigned long 
  7887 ;; Registers used:
  7888 ;;		wreg, status,2, status,0, btemp+1
  7889 ;; Tracked objects:
  7890 ;;		On entry : 0/0
  7891 ;;		On exit  : 0/0
  7892 ;;		Unchanged: 0/0
  7893 ;; Data sizes:     COMMON   BANK0   BANK1   BANK3   BANK2
  7894 ;;      Params:         8       0       0       0       0
  7895 ;;      Locals:         0       5       0       0       0
  7896 ;;      Temps:          0       1       0       0       0
  7897 ;;      Totals:         8       6       0       0       0
  7898 ;;Total ram usage:       14 bytes
  7899 ;; Hardware stack levels used: 1
  7900 ;; Hardware stack levels required when called: 1
  7901 ;; This function calls:
  7902 ;;		Nothing
  7903 ;; This function is called by:
  7904 ;;		_init_i2c
  7905 ;;		_init_uart
  7906 ;; This function uses a non-reentrant model
  7907 ;;
  7908                           
  7909     08D7                     ___lldiv:	
  7910                           ;psect for function ___lldiv
  7911                           
  7912     08D7                     l4195:	
  7913                           ;incstack = 0
  7914                           ; Regs used in ___lldiv: [wreg+status,2+status,0+btemp+1]
  7915                           
  7916     08D7  3000               	movlw	0
  7917     08D8  1283               	bcf	3,5	;RP0=0, select bank0
  7918     08D9  1303               	bcf	3,6	;RP1=0, select bank0
  7919     08DA  00CD               	movwf	___lldiv@quotient+3
  7920     08DB  3000               	movlw	0
  7921     08DC  00CC               	movwf	___lldiv@quotient+2
  7922     08DD  3000               	movlw	0
  7923     08DE  00CB               	movwf	___lldiv@quotient+1
  7924     08DF  3000               	movlw	0
  7925     08E0  00CA               	movwf	___lldiv@quotient
  7926     08E1  0875               	movf	___lldiv@divisor+3,w
  7927     08E2  0474               	iorwf	___lldiv@divisor+2,w
  7928     08E3  0473               	iorwf	___lldiv@divisor+1,w
  7929     08E4  0472               	iorwf	___lldiv@divisor,w
  7930     08E5  1903               	skipnz
  7931     08E6  28E8               	goto	u3571
  7932     08E7  28E9               	goto	u3570
  7933     08E8                     u3571:
  7934     08E8  2936               	goto	l4217
  7935     08E9                     u3570:
  7936     08E9                     l4197:
  7937     08E9  01CE               	clrf	___lldiv@counter
  7938     08EA  0ACE               	incf	___lldiv@counter,f
  7939     08EB  28F9               	goto	l4203
  7940     08EC                     l4199:
  7941     08EC  3001               	movlw	1
  7942     08ED  00C9               	movwf	??___lldiv
  7943     08EE                     u3585:
  7944     08EE  1003               	clrc
  7945     08EF  0DF2               	rlf	___lldiv@divisor,f
  7946     08F0  0DF3               	rlf	___lldiv@divisor+1,f
  7947     08F1  0DF4               	rlf	___lldiv@divisor+2,f
  7948     08F2  0DF5               	rlf	___lldiv@divisor+3,f
  7949     08F3  0BC9               	decfsz	??___lldiv,f
  7950     08F4  28EE               	goto	u3585
  7951     08F5                     l4201:
  7952     08F5  3001               	movlw	1
  7953     08F6  00FF               	movwf	btemp+1
  7954     08F7  087F               	movf	btemp+1,w
  7955     08F8  07CE               	addwf	___lldiv@counter,f
  7956     08F9                     l4203:
  7957     08F9  1FF5               	btfss	___lldiv@divisor+3,7
  7958     08FA  28FC               	goto	u3591
  7959     08FB  28FD               	goto	u3590
  7960     08FC                     u3591:
  7961     08FC  28EC               	goto	l4199
  7962     08FD                     u3590:
  7963     08FD                     l4205:
  7964     08FD  3001               	movlw	1
  7965     08FE  00C9               	movwf	??___lldiv
  7966     08FF                     u3605:
  7967     08FF  1003               	clrc
  7968     0900  0DCA               	rlf	___lldiv@quotient,f
  7969     0901  0DCB               	rlf	___lldiv@quotient+1,f
  7970     0902  0DCC               	rlf	___lldiv@quotient+2,f
  7971     0903  0DCD               	rlf	___lldiv@quotient+3,f
  7972     0904  0BC9               	decfsz	??___lldiv,f
  7973     0905  28FF               	goto	u3605
  7974     0906                     l4207:
  7975     0906  0875               	movf	___lldiv@divisor+3,w
  7976     0907  0279               	subwf	___lldiv@dividend+3,w
  7977     0908  1D03               	skipz
  7978     0909  2914               	goto	u3615
  7979     090A  0874               	movf	___lldiv@divisor+2,w
  7980     090B  0278               	subwf	___lldiv@dividend+2,w
  7981     090C  1D03               	skipz
  7982     090D  2914               	goto	u3615
  7983     090E  0873               	movf	___lldiv@divisor+1,w
  7984     090F  0277               	subwf	___lldiv@dividend+1,w
  7985     0910  1D03               	skipz
  7986     0911  2914               	goto	u3615
  7987     0912  0872               	movf	___lldiv@divisor,w
  7988     0913  0276               	subwf	___lldiv@dividend,w
  7989     0914                     u3615:
  7990     0914  1C03               	skipc
  7991     0915  2917               	goto	u3611
  7992     0916  2918               	goto	u3610
  7993     0917                     u3611:
  7994     0917  2927               	goto	l4213
  7995     0918                     u3610:
  7996     0918                     l4209:
  7997     0918  0872               	movf	___lldiv@divisor,w
  7998     0919  02F6               	subwf	___lldiv@dividend,f
  7999     091A  0873               	movf	___lldiv@divisor+1,w
  8000     091B  1C03               	skipc
  8001     091C  0F73               	incfsz	___lldiv@divisor+1,w
  8002     091D  02F7               	subwf	___lldiv@dividend+1,f
  8003     091E  0874               	movf	___lldiv@divisor+2,w
  8004     091F  1C03               	skipc
  8005     0920  0F74               	incfsz	___lldiv@divisor+2,w
  8006     0921  02F8               	subwf	___lldiv@dividend+2,f
  8007     0922  0875               	movf	___lldiv@divisor+3,w
  8008     0923  1C03               	skipc
  8009     0924  0F75               	incfsz	___lldiv@divisor+3,w
  8010     0925  02F9               	subwf	___lldiv@dividend+3,f
  8011     0926                     l4211:
  8012     0926  144A               	bsf	___lldiv@quotient,0
  8013     0927                     l4213:
  8014     0927  3001               	movlw	1
  8015     0928                     u3625:
  8016     0928  1003               	clrc
  8017     0929  0CF5               	rrf	___lldiv@divisor+3,f
  8018     092A  0CF4               	rrf	___lldiv@divisor+2,f
  8019     092B  0CF3               	rrf	___lldiv@divisor+1,f
  8020     092C  0CF2               	rrf	___lldiv@divisor,f
  8021     092D  3EFF               	addlw	-1
  8022     092E  1D03               	skipz
  8023     092F  2928               	goto	u3625
  8024     0930                     l4215:
  8025     0930  3001               	movlw	1
  8026     0931  02CE               	subwf	___lldiv@counter,f
  8027     0932  1D03               	btfss	3,2
  8028     0933  2935               	goto	u3631
  8029     0934  2936               	goto	u3630
  8030     0935                     u3631:
  8031     0935  28FD               	goto	l4205
  8032     0936                     u3630:
  8033     0936                     l4217:
  8034     0936  084D               	movf	___lldiv@quotient+3,w
  8035     0937  00F5               	movwf	?___lldiv+3
  8036     0938  084C               	movf	___lldiv@quotient+2,w
  8037     0939  00F4               	movwf	?___lldiv+2
  8038     093A  084B               	movf	___lldiv@quotient+1,w
  8039     093B  00F3               	movwf	?___lldiv+1
  8040     093C  084A               	movf	___lldiv@quotient,w
  8041     093D  00F2               	movwf	?___lldiv
  8042     093E                     l704:
  8043     093E  0008               	return
  8044     093F                     __end_of___lldiv:
  8045                           
  8046                           	psect	text22
  8047     1137                     __ptext22:	
  8048 ;; *************** function _init_ds1307 *****************
  8049 ;; Defined at:
  8050 ;;		line 3 in file "ds1307.c"
  8051 ;; Parameters:    Size  Location     Type
  8052 ;;		None
  8053 ;; Auto vars:     Size  Location     Type
  8054 ;;  dummy           1    6[COMMON] unsigned char 
  8055 ;; Return value:  Size  Location     Type
  8056 ;;                  1    wreg      void 
  8057 ;; Registers used:
  8058 ;;		wreg, status,2, status,0, pclath, cstack
  8059 ;; Tracked objects:
  8060 ;;		On entry : 0/0
  8061 ;;		On exit  : 0/0
  8062 ;;		Unchanged: 0/0
  8063 ;; Data sizes:     COMMON   BANK0   BANK1   BANK3   BANK2
  8064 ;;      Params:         0       0       0       0       0
  8065 ;;      Locals:         1       0       0       0       0
  8066 ;;      Temps:          0       0       0       0       0
  8067 ;;      Totals:         1       0       0       0       0
  8068 ;;Total ram usage:        1 bytes
  8069 ;; Hardware stack levels used: 1
  8070 ;; Hardware stack levels required when called: 5
  8071 ;; This function calls:
  8072 ;;		_read_ds1307
  8073 ;;		_write_ds1307
  8074 ;; This function is called by:
  8075 ;;		_init_config
  8076 ;; This function uses a non-reentrant model
  8077 ;;
  8078                           
  8079     1137                     _init_ds1307:	
  8080                           ;psect for function _init_ds1307
  8081                           
  8082     1137                     l4221:	
  8083                           ;incstack = 0
  8084                           ; Regs used in _init_ds1307: [wreg+status,2+status,0+pclath+cstack]
  8085                           
  8086                           
  8087                           ;ds1307.c: 4:     unsigned char dummy;;ds1307.c: 6:     dummy = read_ds1307(0x00);
  8088     1137  3000               	movlw	0
  8089     1138  160A  118A  2275  160A  118A  	fcall	_read_ds1307
  8090     113D  00F6               	movwf	init_ds1307@dummy
  8091     113E                     l4223:
  8092                           
  8093                           ;ds1307.c: 7:     dummy = dummy & 0x7F;
  8094     113E  0876               	movf	init_ds1307@dummy,w
  8095     113F  397F               	andlw	127
  8096     1140  00F6               	movwf	init_ds1307@dummy
  8097     1141                     l4225:
  8098                           
  8099                           ;ds1307.c: 8:     write_ds1307(0x00, dummy);
  8100     1141  0876               	movf	init_ds1307@dummy,w
  8101     1142  00F3               	movwf	write_ds1307@data
  8102     1143  3000               	movlw	0
  8103     1144  160A  118A  21A0  160A  118A  	fcall	_write_ds1307
  8104     1149                     l17:
  8105     1149  0008               	return
  8106     114A                     __end_of_init_ds1307:
  8107                           
  8108                           	psect	text23
  8109     11A0                     __ptext23:	
  8110 ;; *************** function _write_ds1307 *****************
  8111 ;; Defined at:
  8112 ;;		line 25 in file "ds1307.c"
  8113 ;; Parameters:    Size  Location     Type
  8114 ;;  addr            1    wreg     unsigned char 
  8115 ;;  data            1    3[COMMON] unsigned char 
  8116 ;; Auto vars:     Size  Location     Type
  8117 ;;  addr            1    4[COMMON] unsigned char 
  8118 ;; Return value:  Size  Location     Type
  8119 ;;                  1    wreg      void 
  8120 ;; Registers used:
  8121 ;;		wreg, status,2, status,0, pclath, cstack
  8122 ;; Tracked objects:
  8123 ;;		On entry : 0/0
  8124 ;;		On exit  : 0/0
  8125 ;;		Unchanged: 0/0
  8126 ;; Data sizes:     COMMON   BANK0   BANK1   BANK3   BANK2
  8127 ;;      Params:         1       0       0       0       0
  8128 ;;      Locals:         1       0       0       0       0
  8129 ;;      Temps:          0       0       0       0       0
  8130 ;;      Totals:         2       0       0       0       0
  8131 ;;Total ram usage:        2 bytes
  8132 ;; Hardware stack levels used: 1
  8133 ;; Hardware stack levels required when called: 3
  8134 ;; This function calls:
  8135 ;;		_i2c_start
  8136 ;;		_i2c_stop
  8137 ;;		_i2c_write
  8138 ;; This function is called by:
  8139 ;;		_init_ds1307
  8140 ;;		_set_time
  8141 ;; This function uses a non-reentrant model
  8142 ;;
  8143                           
  8144     11A0                     _write_ds1307:	
  8145                           ;psect for function _write_ds1307
  8146                           
  8147                           
  8148                           ;incstack = 0
  8149                           ; Regs used in _write_ds1307: [wreg+status,2+status,0+pclath+cstack]
  8150                           ;write_ds1307@addr stored from wreg
  8151     11A0  00F4               	movwf	write_ds1307@addr
  8152     11A1                     l4123:
  8153                           
  8154                           ;ds1307.c: 25: void write_ds1307(unsigned char addr, unsigned char data);ds1307.c: 26: {
      +                          ;ds1307.c: 27:     i2c_start();
  8155     11A1  160A  118A  20BC  160A  118A  	fcall	_i2c_start
  8156                           
  8157                           ;ds1307.c: 28:     i2c_write(0b11010000);
  8158     11A6  30D0               	movlw	208
  8159     11A7  160A  118A  20D9  160A  118A  	fcall	_i2c_write
  8160                           
  8161                           ;ds1307.c: 29:     i2c_write(addr);
  8162     11AC  0874               	movf	write_ds1307@addr,w
  8163     11AD  160A  118A  20D9  160A  118A  	fcall	_i2c_write
  8164                           
  8165                           ;ds1307.c: 30:     i2c_write(data);
  8166     11B2  0873               	movf	write_ds1307@data,w
  8167     11B3  160A  118A  20D9  160A  118A  	fcall	_i2c_write
  8168                           
  8169                           ;ds1307.c: 31:     i2c_stop();
  8170     11B8  160A  118A  20C5  160A  118A  	fcall	_i2c_stop
  8171     11BD                     l23:
  8172     11BD  0008               	return
  8173     11BE                     __end_of_write_ds1307:
  8174                           
  8175                           	psect	text24
  8176     10A7                     __ptext24:	
  8177 ;; *************** function _init_digital_keypad *****************
  8178 ;; Defined at:
  8179 ;;		line 3 in file "digital_keypad.c"
  8180 ;; Parameters:    Size  Location     Type
  8181 ;;		None
  8182 ;; Auto vars:     Size  Location     Type
  8183 ;;		None
  8184 ;; Return value:  Size  Location     Type
  8185 ;;                  1    wreg      void 
  8186 ;; Registers used:
  8187 ;;		wreg, status,2
  8188 ;; Tracked objects:
  8189 ;;		On entry : 0/0
  8190 ;;		On exit  : 0/0
  8191 ;;		Unchanged: 0/0
  8192 ;; Data sizes:     COMMON   BANK0   BANK1   BANK3   BANK2
  8193 ;;      Params:         0       0       0       0       0
  8194 ;;      Locals:         0       0       0       0       0
  8195 ;;      Temps:          0       0       0       0       0
  8196 ;;      Totals:         0       0       0       0       0
  8197 ;;Total ram usage:        0 bytes
  8198 ;; Hardware stack levels used: 1
  8199 ;; Hardware stack levels required when called: 1
  8200 ;; This function calls:
  8201 ;;		Nothing
  8202 ;; This function is called by:
  8203 ;;		_init_config
  8204 ;; This function uses a non-reentrant model
  8205 ;;
  8206                           
  8207     10A7                     _init_digital_keypad:	
  8208                           ;psect for function _init_digital_keypad
  8209                           
  8210     10A7                     l4249:	
  8211                           ;incstack = 0
  8212                           ; Regs used in _init_digital_keypad: [wreg+status,2]
  8213                           
  8214                           
  8215                           ;digital_keypad.c: 5:     TRISB = TRISB | 0x3F;
  8216     10A7  1683               	bsf	3,5	;RP0=1, select bank1
  8217     10A8  1303               	bcf	3,6	;RP1=0, select bank1
  8218     10A9  0806               	movf	6,w	;volatile
  8219     10AA  383F               	iorlw	63
  8220     10AB  0086               	movwf	6	;volatile
  8221     10AC                     l116:
  8222     10AC  0008               	return
  8223     10AD                     __end_of_init_digital_keypad:
  8224                           
  8225                           	psect	text25
  8226     10EF                     __ptext25:	
  8227 ;; *************** function _init_clcd *****************
  8228 ;; Defined at:
  8229 ;;		line 41 in file "clcd.c"
  8230 ;; Parameters:    Size  Location     Type
  8231 ;;		None
  8232 ;; Auto vars:     Size  Location     Type
  8233 ;;		None
  8234 ;; Return value:  Size  Location     Type
  8235 ;;                  1    wreg      void 
  8236 ;; Registers used:
  8237 ;;		wreg, status,2, status,0, pclath, cstack
  8238 ;; Tracked objects:
  8239 ;;		On entry : 0/0
  8240 ;;		On exit  : 0/0
  8241 ;;		Unchanged: 0/0
  8242 ;; Data sizes:     COMMON   BANK0   BANK1   BANK3   BANK2
  8243 ;;      Params:         0       0       0       0       0
  8244 ;;      Locals:         0       0       0       0       0
  8245 ;;      Temps:          0       0       0       0       0
  8246 ;;      Totals:         0       0       0       0       0
  8247 ;;Total ram usage:        0 bytes
  8248 ;; Hardware stack levels used: 1
  8249 ;; Hardware stack levels required when called: 3
  8250 ;; This function calls:
  8251 ;;		_init_display_controller
  8252 ;; This function is called by:
  8253 ;;		_init_config
  8254 ;; This function uses a non-reentrant model
  8255 ;;
  8256                           
  8257     10EF                     _init_clcd:	
  8258                           ;psect for function _init_clcd
  8259                           
  8260     10EF                     l4227:	
  8261                           ;incstack = 0
  8262                           ; Regs used in _init_clcd: [wreg+status,2+status,0+pclath+cstack]
  8263                           
  8264                           
  8265                           ;clcd.c: 43:     TRISD = 0x00;
  8266     10EF  1683               	bsf	3,5	;RP0=1, select bank1
  8267     10F0  1303               	bcf	3,6	;RP1=0, select bank1
  8268     10F1  0188               	clrf	8	;volatile
  8269     10F2                     l4229:
  8270                           
  8271                           ;clcd.c: 46:     TRISE2 = 0;
  8272     10F2  1109               	bcf	9,2	;volatile
  8273     10F3                     l4231:
  8274                           
  8275                           ;clcd.c: 47:     TRISE1 = 0;
  8276     10F3  1089               	bcf	9,1	;volatile
  8277     10F4                     l4233:
  8278                           
  8279                           ;clcd.c: 49:     init_display_controller();
  8280     10F4  160A  118A  2736  160A  118A  	fcall	_init_display_controller
  8281     10F9                     l46:
  8282     10F9  0008               	return
  8283     10FA                     __end_of_init_clcd:
  8284                           
  8285                           	psect	text26
  8286     1736                     __ptext26:	
  8287 ;; *************** function _init_display_controller *****************
  8288 ;; Defined at:
  8289 ;;		line 19 in file "clcd.c"
  8290 ;; Parameters:    Size  Location     Type
  8291 ;;		None
  8292 ;; Auto vars:     Size  Location     Type
  8293 ;;		None
  8294 ;; Return value:  Size  Location     Type
  8295 ;;                  1    wreg      void 
  8296 ;; Registers used:
  8297 ;;		wreg, status,2, status,0, pclath, cstack
  8298 ;; Tracked objects:
  8299 ;;		On entry : 0/0
  8300 ;;		On exit  : 0/0
  8301 ;;		Unchanged: 0/0
  8302 ;; Data sizes:     COMMON   BANK0   BANK1   BANK3   BANK2
  8303 ;;      Params:         0       0       0       0       0
  8304 ;;      Locals:         0       0       0       0       0
  8305 ;;      Temps:          2       0       0       0       0
  8306 ;;      Totals:         2       0       0       0       0
  8307 ;;Total ram usage:        2 bytes
  8308 ;; Hardware stack levels used: 1
  8309 ;; Hardware stack levels required when called: 2
  8310 ;; This function calls:
  8311 ;;		_clcd_write
  8312 ;; This function is called by:
  8313 ;;		_init_clcd
  8314 ;; This function uses a non-reentrant model
  8315 ;;
  8316                           
  8317     1736                     _init_display_controller:	
  8318                           ;psect for function _init_display_controller
  8319                           
  8320     1736                     l4125:	
  8321                           ;incstack = 0
  8322                           ; Regs used in _init_display_controller: [wreg+status,2+status,0+pclath+cstack]
  8323                           
  8324                           
  8325                           ;clcd.c: 21:     _delay((unsigned long)((30)*(20000000/4000.0)));
  8326     1736  30C3               	movlw	195
  8327     1737  00F7               	movwf	??_init_display_controller+1
  8328     1738  30CD               	movlw	205
  8329     1739  00F6               	movwf	??_init_display_controller
  8330     173A                     u5307:
  8331     173A  0BF6               	decfsz	??_init_display_controller,f
  8332     173B  2F3A               	goto	u5307
  8333     173C  0BF7               	decfsz	??_init_display_controller+1,f
  8334     173D  2F3A               	goto	u5307
  8335     173E                     l4127:
  8336                           
  8337                           ;clcd.c: 24:     clcd_write(0x33, 0);
  8338     173E  01F2               	clrf	clcd_write@mode
  8339     173F  3033               	movlw	51
  8340     1740  160A  118A  23BB  160A  118A  	fcall	_clcd_write
  8341     1745                     l4129:
  8342                           
  8343                           ;clcd.c: 25:     _delay((unsigned long)((4100)*(20000000/4000000.0)));
  8344     1745  301B               	movlw	27
  8345     1746  00F7               	movwf	??_init_display_controller+1
  8346     1747  309E               	movlw	158
  8347     1748  00F6               	movwf	??_init_display_controller
  8348     1749                     u5317:
  8349     1749  0BF6               	decfsz	??_init_display_controller,f
  8350     174A  2F49               	goto	u5317
  8351     174B  0BF7               	decfsz	??_init_display_controller+1,f
  8352     174C  2F49               	goto	u5317
  8353     174D  0000               	nop
  8354                           
  8355                           ;clcd.c: 26:     clcd_write(0x33, 0);
  8356     174E  01F2               	clrf	clcd_write@mode
  8357     174F  3033               	movlw	51
  8358     1750  160A  118A  23BB  160A  118A  	fcall	_clcd_write
  8359     1755                     l4131:
  8360                           
  8361                           ;clcd.c: 27:     _delay((unsigned long)((100)*(20000000/4000000.0)));
  8362     1755  30A6               	movlw	166
  8363     1756  00F6               	movwf	??_init_display_controller
  8364     1757                     u5327:
  8365     1757  0BF6               	decfsz	??_init_display_controller,f
  8366     1758  2F57               	goto	u5327
  8367     1759  0000               	nop
  8368     175A                     l4133:
  8369                           
  8370                           ;clcd.c: 28:     clcd_write(0x33, 0);
  8371     175A  01F2               	clrf	clcd_write@mode
  8372     175B  3033               	movlw	51
  8373     175C  160A  118A  23BB  160A  118A  	fcall	_clcd_write
  8374     1761                     l4135:
  8375                           
  8376                           ;clcd.c: 29:     _delay((unsigned long)((1)*(20000000/4000000.0)));
  8377     1761  2F62               	nop2	;2 cycle nop
  8378     1762  2F63               	nop2	;2 cycle nop
  8379     1763  0000               	nop
  8380     1764                     l4137:
  8381                           
  8382                           ;clcd.c: 31:     clcd_write(0x02, 0);
  8383     1764  01F2               	clrf	clcd_write@mode
  8384     1765  3002               	movlw	2
  8385     1766  160A  118A  23BB  160A  118A  	fcall	_clcd_write
  8386     176B                     l4139:
  8387                           
  8388                           ;clcd.c: 32:     _delay((unsigned long)((100)*(20000000/4000000.0)));
  8389     176B  30A6               	movlw	166
  8390     176C  00F6               	movwf	??_init_display_controller
  8391     176D                     u5337:
  8392     176D  0BF6               	decfsz	??_init_display_controller,f
  8393     176E  2F6D               	goto	u5337
  8394     176F  0000               	nop
  8395                           
  8396                           ;clcd.c: 33:     clcd_write(0x28, 0);
  8397     1770  01F2               	clrf	clcd_write@mode
  8398     1771  3028               	movlw	40
  8399     1772  160A  118A  23BB  160A  118A  	fcall	_clcd_write
  8400     1777                     l4141:
  8401                           
  8402                           ;clcd.c: 34:     _delay((unsigned long)((100)*(20000000/4000000.0)));
  8403     1777  30A6               	movlw	166
  8404     1778  00F6               	movwf	??_init_display_controller
  8405     1779                     u5347:
  8406     1779  0BF6               	decfsz	??_init_display_controller,f
  8407     177A  2F79               	goto	u5347
  8408     177B  0000               	nop
  8409     177C                     l4143:
  8410                           
  8411                           ;clcd.c: 35:     clcd_write(0x01, 0);
  8412     177C  01F2               	clrf	clcd_write@mode
  8413     177D  3001               	movlw	1
  8414     177E  160A  118A  23BB  160A  118A  	fcall	_clcd_write
  8415                           
  8416                           ;clcd.c: 36:     _delay((unsigned long)((500)*(20000000/4000000.0)));
  8417     1783  3004               	movlw	4
  8418     1784  00F7               	movwf	??_init_display_controller+1
  8419     1785  303D               	movlw	61
  8420     1786  00F6               	movwf	??_init_display_controller
  8421     1787                     u5357:
  8422     1787  0BF6               	decfsz	??_init_display_controller,f
  8423     1788  2F87               	goto	u5357
  8424     1789  0BF7               	decfsz	??_init_display_controller+1,f
  8425     178A  2F87               	goto	u5357
  8426     178B  2F8C               	nop2
  8427     178C                     l4145:
  8428                           
  8429                           ;clcd.c: 37:     clcd_write(0x0C, 0);
  8430     178C  01F2               	clrf	clcd_write@mode
  8431     178D  300C               	movlw	12
  8432     178E  160A  118A  23BB  160A  118A  	fcall	_clcd_write
  8433     1793                     l4147:
  8434                           
  8435                           ;clcd.c: 38:     _delay((unsigned long)((100)*(20000000/4000000.0)));
  8436     1793  30A6               	movlw	166
  8437     1794  00F6               	movwf	??_init_display_controller
  8438     1795                     u5367:
  8439     1795  0BF6               	decfsz	??_init_display_controller,f
  8440     1796  2F95               	goto	u5367
  8441     1797  0000               	nop
  8442     1798                     l43:
  8443     1798  0008               	return
  8444     1799                     __end_of_init_display_controller:
  8445                           
  8446                           	psect	text27
  8447     10AD                     __ptext27:	
  8448 ;; *************** function _init_adc *****************
  8449 ;; Defined at:
  8450 ;;		line 3 in file "adc.c"
  8451 ;; Parameters:    Size  Location     Type
  8452 ;;		None
  8453 ;; Auto vars:     Size  Location     Type
  8454 ;;		None
  8455 ;; Return value:  Size  Location     Type
  8456 ;;                  1    wreg      void 
  8457 ;; Registers used:
  8458 ;;		None
  8459 ;; Tracked objects:
  8460 ;;		On entry : 0/0
  8461 ;;		On exit  : 0/0
  8462 ;;		Unchanged: 0/0
  8463 ;; Data sizes:     COMMON   BANK0   BANK1   BANK3   BANK2
  8464 ;;      Params:         0       0       0       0       0
  8465 ;;      Locals:         0       0       0       0       0
  8466 ;;      Temps:          0       0       0       0       0
  8467 ;;      Totals:         0       0       0       0       0
  8468 ;;Total ram usage:        0 bytes
  8469 ;; Hardware stack levels used: 1
  8470 ;; Hardware stack levels required when called: 1
  8471 ;; This function calls:
  8472 ;;		Nothing
  8473 ;; This function is called by:
  8474 ;;		_init_config
  8475 ;; This function uses a non-reentrant model
  8476 ;;
  8477                           
  8478     10AD                     _init_adc:	
  8479                           ;psect for function _init_adc
  8480                           
  8481     10AD                     l4251:	
  8482                           ;incstack = 0
  8483                           ; Regs used in _init_adc: []
  8484                           
  8485                           
  8486                           ;adc.c: 5:     ADFM = 1;
  8487     10AD  1683               	bsf	3,5	;RP0=1, select bank1
  8488     10AE  1303               	bcf	3,6	;RP1=0, select bank1
  8489     10AF  179F               	bsf	31,7	;volatile
  8490                           
  8491                           ;adc.c: 8:     ADON = 1;
  8492     10B0  1283               	bcf	3,5	;RP0=0, select bank0
  8493     10B1  1303               	bcf	3,6	;RP1=0, select bank0
  8494     10B2  141F               	bsf	31,0	;volatile
  8495     10B3                     l154:
  8496     10B3  0008               	return
  8497     10B4                     __end_of_init_adc:
  8498                           
  8499                           	psect	text28
  8500     0A80                     __ptext28:	
  8501 ;; *************** function _download_records *****************
  8502 ;; Defined at:
  8503 ;;		line 320 in file "function_definitions.c"
  8504 ;; Parameters:    Size  Location     Type
  8505 ;;		None
  8506 ;; Auto vars:     Size  Location     Type
  8507 ;;  i               2   16[BANK0 ] int 
  8508 ;;  records        11    0[BANK0 ] unsigned char [11]
  8509 ;;  index           2   14[BANK0 ] int 
  8510 ;;  position        2   12[BANK0 ] int 
  8511 ;;  addr            1   11[BANK0 ] unsigned char 
  8512 ;; Return value:  Size  Location     Type
  8513 ;;                  1    wreg      void 
  8514 ;; Registers used:
  8515 ;;		wreg, fsr0l, fsr0h, status,2, status,0, btemp+1, pclath, cstack
  8516 ;; Tracked objects:
  8517 ;;		On entry : 0/0
  8518 ;;		On exit  : 0/0
  8519 ;;		Unchanged: 0/0
  8520 ;; Data sizes:     COMMON   BANK0   BANK1   BANK3   BANK2
  8521 ;;      Params:         0       0       0       0       0
  8522 ;;      Locals:         0      18       0       0       0
  8523 ;;      Temps:          1       0       0       0       0
  8524 ;;      Totals:         1      18       0       0       0
  8525 ;;Total ram usage:       19 bytes
  8526 ;; Hardware stack levels used: 1
  8527 ;; Hardware stack levels required when called: 5
  8528 ;; This function calls:
  8529 ;;		___bmul
  8530 ;;		_eeprom_read
  8531 ;;		_putchar
  8532 ;;		_puts
  8533 ;; This function is called by:
  8534 ;;		_main
  8535 ;; This function uses a non-reentrant model
  8536 ;;
  8537                           
  8538     0A80                     _download_records:	
  8539                           ;psect for function _download_records
  8540                           
  8541     0A80                     l4871:	
  8542                           ;incstack = 0
  8543                           ; Regs used in _download_records: [wreg-fsr0h+status,2+status,0+btemp+1+pclath+cstack]
  8544                           
  8545                           
  8546                           ;function_definitions.c: 321:     int index = -1;
  8547     0A80  30FF               	movlw	255
  8548     0A81  1283               	bcf	3,5	;RP0=0, select bank0
  8549     0A82  1303               	bcf	3,6	;RP1=0, select bank0
  8550     0A83  00D7               	movwf	download_records@index
  8551     0A84  30FF               	movlw	255
  8552     0A85  00D8               	movwf	download_records@index+1
  8553     0A86                     l4873:
  8554                           
  8555                           ;function_definitions.c: 322:     char records[11];;function_definitions.c: 323:     rec
      +                          ords[10] = '\0';
  8556     0A86  01D3               	clrf	download_records@records+10
  8557     0A87                     l4875:
  8558     0A87                     l4877:
  8559                           
  8560                           ;function_definitions.c: 325:     unsigned char addr;;function_definitions.c: 328:     i
      +                          f (record_count == -1) {
  8561     0A87  0A62               	incf	_record_count,w
  8562     0A88  1D03               	skipz
  8563     0A89  2A8E               	goto	u4601
  8564     0A8A  0A63               	incf	_record_count+1,w
  8565     0A8B  1D03               	btfss	3,2
  8566     0A8C  2A8E               	goto	u4601
  8567     0A8D  2A8F               	goto	u4600
  8568     0A8E                     u4601:
  8569     0A8E  2A99               	goto	l4881
  8570     0A8F                     u4600:
  8571     0A8F                     l4879:
  8572                           
  8573                           ;function_definitions.c: 329:         puts("No logs available");
  8574     0A8F  3025               	movlw	low (STR_35| (0+32768))
  8575     0A90  00F3               	movwf	puts@s
  8576     0A91  3087               	movlw	high (STR_35| (0+32768))
  8577     0A92  00F4               	movwf	puts@s+1
  8578     0A93  160A  118A  2224  120A  158A  	fcall	_puts
  8579                           
  8580                           ;function_definitions.c: 330:     }
  8581     0A98  2BA4               	goto	l419
  8582     0A99                     l4881:
  8583                           
  8584                           ;function_definitions.c: 332:         puts("Logs :");
  8585     0A99  3098               	movlw	low (STR_36| (0+32768))
  8586     0A9A  00F3               	movwf	puts@s
  8587     0A9B  3088               	movlw	high (STR_36| (0+32768))
  8588     0A9C  00F4               	movwf	puts@s+1
  8589     0A9D  160A  118A  2224  120A  158A  	fcall	_puts
  8590     0AA2                     l4883:
  8591                           
  8592                           ;function_definitions.c: 333:         putchar('\n');
  8593     0AA2  300A               	movlw	10
  8594     0AA3  160A  118A  20E4  120A  158A  	fcall	_putchar
  8595     0AA8                     l4885:
  8596                           
  8597                           ;function_definitions.c: 335:         puts(" #     Time        Event       Speed");
  8598     0AA8  3000               	movlw	low (STR_37| (0+32768))
  8599     0AA9  00F3               	movwf	puts@s
  8600     0AAA  3087               	movlw	high (STR_37| (0+32768))
  8601     0AAB  00F4               	movwf	puts@s+1
  8602     0AAC  160A  118A  2224  120A  158A  	fcall	_puts
  8603                           
  8604                           ;function_definitions.c: 336:         putchar('\n');
  8605     0AB1  300A               	movlw	10
  8606     0AB2  160A  118A  20E4  120A  158A  	fcall	_putchar
  8607                           
  8608                           ;function_definitions.c: 339:         while (index < record_count) {
  8609     0AB7  2B94               	goto	l4937
  8610     0AB8                     l4887:
  8611                           
  8612                           ;function_definitions.c: 341:             position = index + 1;
  8613     0AB8  1283               	bcf	3,5	;RP0=0, select bank0
  8614     0AB9  1303               	bcf	3,6	;RP1=0, select bank0
  8615     0ABA  0857               	movf	download_records@index,w
  8616     0ABB  3E01               	addlw	1
  8617     0ABC  00D5               	movwf	download_records@position
  8618     0ABD  0858               	movf	download_records@index+1,w
  8619     0ABE  1803               	skipnc
  8620     0ABF  3E01               	addlw	1
  8621     0AC0  3E00               	addlw	0
  8622     0AC1  00D6               	movwf	download_records@position+1
  8623     0AC2                     l4889:
  8624                           
  8625                           ;function_definitions.c: 343:             index++;
  8626     0AC2  3001               	movlw	1
  8627     0AC3  07D7               	addwf	download_records@index,f
  8628     0AC4  1803               	skipnc
  8629     0AC5  0AD8               	incf	download_records@index+1,f
  8630     0AC6  3000               	movlw	0
  8631     0AC7  07D8               	addwf	download_records@index+1,f
  8632     0AC8                     l4891:
  8633                           
  8634                           ;function_definitions.c: 346:             for (int i = 0; i < 10; i++) {
  8635     0AC8  01D9               	clrf	download_records@i
  8636     0AC9  01DA               	clrf	download_records@i+1
  8637     0ACA                     l4897:
  8638                           
  8639                           ;function_definitions.c: 348:                 addr = (unsigned char) (position * 10 + 5 
      +                          + i);
  8640     0ACA  300A               	movlw	10
  8641     0ACB  00F2               	movwf	___bmul@multiplicand
  8642     0ACC  1283               	bcf	3,5	;RP0=0, select bank0
  8643     0ACD  1303               	bcf	3,6	;RP1=0, select bank0
  8644     0ACE  0855               	movf	download_records@position,w
  8645     0ACF  160A  118A  2172  120A  158A  	fcall	___bmul
  8646     0AD4  1283               	bcf	3,5	;RP0=0, select bank0
  8647     0AD5  1303               	bcf	3,6	;RP1=0, select bank0
  8648     0AD6  0759               	addwf	download_records@i,w
  8649     0AD7  3E05               	addlw	5
  8650     0AD8  00D4               	movwf	download_records@addr
  8651     0AD9                     l4899:
  8652                           
  8653                           ;function_definitions.c: 350:                 records[i] = eeprom_read(addr);
  8654     0AD9  0859               	movf	download_records@i,w
  8655     0ADA  3E49               	addlw	(low (download_records@records| 0))& (0+255)
  8656     0ADB  0084               	movwf	4
  8657     0ADC  0854               	movf	download_records@addr,w
  8658     0ADD  160A  118A  22A0  120A  158A  	fcall	_eeprom_read
  8659     0AE2  1383               	bcf	3,7	;select IRP bank0
  8660     0AE3  0080               	movwf	0
  8661     0AE4                     l4901:
  8662                           
  8663                           ;function_definitions.c: 351:             }
  8664     0AE4  3001               	movlw	1
  8665     0AE5  1283               	bcf	3,5	;RP0=0, select bank0
  8666     0AE6  1303               	bcf	3,6	;RP1=0, select bank0
  8667     0AE7  07D9               	addwf	download_records@i,f
  8668     0AE8  1803               	skipnc
  8669     0AE9  0ADA               	incf	download_records@i+1,f
  8670     0AEA  3000               	movlw	0
  8671     0AEB  07DA               	addwf	download_records@i+1,f
  8672     0AEC                     l4903:
  8673     0AEC  085A               	movf	download_records@i+1,w
  8674     0AED  3A80               	xorlw	128
  8675     0AEE  00FF               	movwf	btemp+1
  8676     0AEF  3080               	movlw	128
  8677     0AF0  027F               	subwf	btemp+1,w
  8678     0AF1  1D03               	skipz
  8679     0AF2  2AF5               	goto	u4615
  8680     0AF3  300A               	movlw	10
  8681     0AF4  0259               	subwf	download_records@i,w
  8682     0AF5                     u4615:
  8683     0AF5  1C03               	skipc
  8684     0AF6  2AF8               	goto	u4611
  8685     0AF7  2AF9               	goto	u4610
  8686     0AF8                     u4611:
  8687     0AF8  2ACA               	goto	l4897
  8688     0AF9                     u4610:
  8689     0AF9                     l4905:
  8690                           
  8691                           ;function_definitions.c: 354:             if (index < 10)
  8692     0AF9  1283               	bcf	3,5	;RP0=0, select bank0
  8693     0AFA  1303               	bcf	3,6	;RP1=0, select bank0
  8694     0AFB  0858               	movf	download_records@index+1,w
  8695     0AFC  3A80               	xorlw	128
  8696     0AFD  00FF               	movwf	btemp+1
  8697     0AFE  3080               	movlw	128
  8698     0AFF  027F               	subwf	btemp+1,w
  8699     0B00  1D03               	skipz
  8700     0B01  2B04               	goto	u4625
  8701     0B02  300A               	movlw	10
  8702     0B03  0257               	subwf	download_records@index,w
  8703     0B04                     u4625:
  8704     0B04  1803               	skipnc
  8705     0B05  2B07               	goto	u4621
  8706     0B06  2B08               	goto	u4620
  8707     0B07                     u4621:
  8708     0B07  2B0E               	goto	l417
  8709     0B08                     u4620:
  8710     0B08                     l4907:
  8711                           
  8712                           ;function_definitions.c: 355:                 putchar(' ');
  8713     0B08  3020               	movlw	32
  8714     0B09  160A  118A  20E4  120A  158A  	fcall	_putchar
  8715     0B0E                     l417:
  8716                           
  8717                           ;function_definitions.c: 357:             putchar(index + '0');
  8718     0B0E  1283               	bcf	3,5	;RP0=0, select bank0
  8719     0B0F  1303               	bcf	3,6	;RP1=0, select bank0
  8720     0B10  0857               	movf	download_records@index,w
  8721     0B11  3E30               	addlw	48
  8722     0B12  160A  118A  20E4  120A  158A  	fcall	_putchar
  8723     0B17                     l4909:
  8724                           
  8725                           ;function_definitions.c: 358:             puts("   ");
  8726     0B17  3078               	movlw	low ((STR_40+7)| (0+32768))
  8727     0B18  00F3               	movwf	puts@s
  8728     0B19  3088               	movlw	high ((STR_40+7)| (0+32768))
  8729     0B1A  00F4               	movwf	puts@s+1
  8730     0B1B  160A  118A  2224  120A  158A  	fcall	_puts
  8731     0B20                     l4911:
  8732                           
  8733                           ;function_definitions.c: 361:             putchar(records[0]);
  8734     0B20  1283               	bcf	3,5	;RP0=0, select bank0
  8735     0B21  1303               	bcf	3,6	;RP1=0, select bank0
  8736     0B22  0849               	movf	download_records@records,w
  8737     0B23  160A  118A  20E4  120A  158A  	fcall	_putchar
  8738     0B28                     l4913:
  8739                           
  8740                           ;function_definitions.c: 362:             putchar(records[1]);
  8741     0B28  1283               	bcf	3,5	;RP0=0, select bank0
  8742     0B29  1303               	bcf	3,6	;RP1=0, select bank0
  8743     0B2A  084A               	movf	download_records@records+1,w
  8744     0B2B  160A  118A  20E4  120A  158A  	fcall	_putchar
  8745     0B30                     l4915:
  8746                           
  8747                           ;function_definitions.c: 363:             putchar(':');
  8748     0B30  303A               	movlw	58
  8749     0B31  160A  118A  20E4  120A  158A  	fcall	_putchar
  8750     0B36                     l4917:
  8751                           
  8752                           ;function_definitions.c: 366:             putchar(records[2]);
  8753     0B36  1283               	bcf	3,5	;RP0=0, select bank0
  8754     0B37  1303               	bcf	3,6	;RP1=0, select bank0
  8755     0B38  084B               	movf	download_records@records+2,w
  8756     0B39  160A  118A  20E4  120A  158A  	fcall	_putchar
  8757     0B3E                     l4919:
  8758                           
  8759                           ;function_definitions.c: 367:             putchar(records[3]);
  8760     0B3E  1283               	bcf	3,5	;RP0=0, select bank0
  8761     0B3F  1303               	bcf	3,6	;RP1=0, select bank0
  8762     0B40  084C               	movf	download_records@records+3,w
  8763     0B41  160A  118A  20E4  120A  158A  	fcall	_putchar
  8764     0B46                     l4921:
  8765                           
  8766                           ;function_definitions.c: 368:             putchar(':');
  8767     0B46  303A               	movlw	58
  8768     0B47  160A  118A  20E4  120A  158A  	fcall	_putchar
  8769     0B4C                     l4923:
  8770                           
  8771                           ;function_definitions.c: 371:             putchar(records[4]);
  8772     0B4C  1283               	bcf	3,5	;RP0=0, select bank0
  8773     0B4D  1303               	bcf	3,6	;RP1=0, select bank0
  8774     0B4E  084D               	movf	download_records@records+4,w
  8775     0B4F  160A  118A  20E4  120A  158A  	fcall	_putchar
  8776     0B54                     l4925:
  8777                           
  8778                           ;function_definitions.c: 372:             putchar(records[5]);
  8779     0B54  1283               	bcf	3,5	;RP0=0, select bank0
  8780     0B55  1303               	bcf	3,6	;RP1=0, select bank0
  8781     0B56  084E               	movf	download_records@records+5,w
  8782     0B57  160A  118A  20E4  120A  158A  	fcall	_putchar
  8783     0B5C                     l4927:
  8784                           
  8785                           ;function_definitions.c: 374:             puts("      ");
  8786     0B5C  3075               	movlw	low ((STR_40+4)| (0+32768))
  8787     0B5D  00F3               	movwf	puts@s
  8788     0B5E  3088               	movlw	high ((STR_40+4)| (0+32768))
  8789     0B5F  00F4               	movwf	puts@s+1
  8790     0B60  160A  118A  2224  120A  158A  	fcall	_puts
  8791                           
  8792                           ;function_definitions.c: 377:             putchar(records[6]);
  8793     0B65  1283               	bcf	3,5	;RP0=0, select bank0
  8794     0B66  1303               	bcf	3,6	;RP1=0, select bank0
  8795     0B67  084F               	movf	download_records@records+6,w
  8796     0B68  160A  118A  20E4  120A  158A  	fcall	_putchar
  8797                           
  8798                           ;function_definitions.c: 378:             putchar(records[7]);
  8799     0B6D  1283               	bcf	3,5	;RP0=0, select bank0
  8800     0B6E  1303               	bcf	3,6	;RP1=0, select bank0
  8801     0B6F  0850               	movf	download_records@records+7,w
  8802     0B70  160A  118A  20E4  120A  158A  	fcall	_putchar
  8803     0B75                     l4929:
  8804                           
  8805                           ;function_definitions.c: 380:             puts("          ");
  8806     0B75  3071               	movlw	low (STR_40| (0+32768))
  8807     0B76  00F3               	movwf	puts@s
  8808     0B77  3088               	movlw	high (STR_40| (0+32768))
  8809     0B78  00F4               	movwf	puts@s+1
  8810     0B79  160A  118A  2224  120A  158A  	fcall	_puts
  8811     0B7E                     l4931:
  8812                           
  8813                           ;function_definitions.c: 383:             putchar(records[8]);
  8814     0B7E  1283               	bcf	3,5	;RP0=0, select bank0
  8815     0B7F  1303               	bcf	3,6	;RP1=0, select bank0
  8816     0B80  0851               	movf	download_records@records+8,w
  8817     0B81  160A  118A  20E4  120A  158A  	fcall	_putchar
  8818     0B86                     l4933:
  8819                           
  8820                           ;function_definitions.c: 384:             putchar(records[9]);
  8821     0B86  1283               	bcf	3,5	;RP0=0, select bank0
  8822     0B87  1303               	bcf	3,6	;RP1=0, select bank0
  8823     0B88  0852               	movf	download_records@records+9,w
  8824     0B89  160A  118A  20E4  120A  158A  	fcall	_putchar
  8825     0B8E                     l4935:
  8826                           
  8827                           ;function_definitions.c: 385:             putchar('\n');
  8828     0B8E  300A               	movlw	10
  8829     0B8F  160A  118A  20E4  120A  158A  	fcall	_putchar
  8830     0B94                     l4937:
  8831                           
  8832                           ;function_definitions.c: 339:         while (index < record_count) {
  8833     0B94  1283               	bcf	3,5	;RP0=0, select bank0
  8834     0B95  1303               	bcf	3,6	;RP1=0, select bank0
  8835     0B96  0858               	movf	download_records@index+1,w
  8836     0B97  3A80               	xorlw	128
  8837     0B98  00F6               	movwf	??_download_records
  8838     0B99  0863               	movf	_record_count+1,w
  8839     0B9A  3A80               	xorlw	128
  8840     0B9B  0276               	subwf	??_download_records,w
  8841     0B9C  1D03               	skipz
  8842     0B9D  2BA0               	goto	u4635
  8843     0B9E  0862               	movf	_record_count,w
  8844     0B9F  0257               	subwf	download_records@index,w
  8845     0BA0                     u4635:
  8846     0BA0  1C03               	skipc
  8847     0BA1  2BA3               	goto	u4631
  8848     0BA2  2BA4               	goto	u4630
  8849     0BA3                     u4631:
  8850     0BA3  2AB8               	goto	l4887
  8851     0BA4                     u4630:
  8852     0BA4                     l419:
  8853     0BA4  0008               	return
  8854     0BA5                     __end_of_download_records:
  8855                           
  8856                           	psect	text29
  8857     1224                     __ptext29:	
  8858 ;; *************** function _puts *****************
  8859 ;; Defined at:
  8860 ;;		line 40 in file "uart.c"
  8861 ;; Parameters:    Size  Location     Type
  8862 ;;  s               2    3[COMMON] PTR const unsigned char 
  8863 ;;		 -> STR_40(11), STR_39(7), STR_38(4), STR_37(37), 
  8864 ;;		 -> STR_36(7), STR_35(18), STR_7(17), 
  8865 ;; Auto vars:     Size  Location     Type
  8866 ;;		None
  8867 ;; Return value:  Size  Location     Type
  8868 ;;                  1    wreg      void 
  8869 ;; Registers used:
  8870 ;;		wreg, fsr0l, fsr0h, status,2, status,0, btemp+1, pclath, cstack
  8871 ;; Tracked objects:
  8872 ;;		On entry : 0/0
  8873 ;;		On exit  : 0/0
  8874 ;;		Unchanged: 0/0
  8875 ;; Data sizes:     COMMON   BANK0   BANK1   BANK3   BANK2
  8876 ;;      Params:         2       0       0       0       0
  8877 ;;      Locals:         0       0       0       0       0
  8878 ;;      Temps:          0       0       0       0       0
  8879 ;;      Totals:         2       0       0       0       0
  8880 ;;Total ram usage:        2 bytes
  8881 ;; Hardware stack levels used: 1
  8882 ;; Hardware stack levels required when called: 2
  8883 ;; This function calls:
  8884 ;;		_putchar
  8885 ;; This function is called by:
  8886 ;;		_init_config
  8887 ;;		_download_records
  8888 ;; This function uses a non-reentrant model
  8889 ;;
  8890                           
  8891     1224                     _puts:	
  8892                           ;psect for function _puts
  8893                           
  8894     1224                     l4265:	
  8895                           ;incstack = 0
  8896                           ; Regs used in _puts: [wreg-fsr0h+status,2+status,0+btemp+1+pclath+cstack]
  8897                           
  8898                           
  8899                           ;uart.c: 41:     while (*s) {
  8900     1224  2A39               	goto	l4271
  8901     1225                     l4267:
  8902                           
  8903                           ;uart.c: 42:         putchar(*s++);
  8904     1225  0874               	movf	puts@s+1,w
  8905     1226  00FF               	movwf	btemp+1
  8906     1227  0873               	movf	puts@s,w
  8907     1228  0084               	movwf	4
  8908     1229  160A  118A  2000  160A  118A  	fcall	stringtab
  8909     122E  160A  118A  20E4  160A  118A  	fcall	_putchar
  8910     1233                     l4269:
  8911     1233  3001               	movlw	1
  8912     1234  07F3               	addwf	puts@s,f
  8913     1235  1803               	skipnc
  8914     1236  0AF4               	incf	puts@s+1,f
  8915     1237  3000               	movlw	0
  8916     1238  07F4               	addwf	puts@s+1,f
  8917     1239                     l4271:
  8918                           
  8919                           ;uart.c: 41:     while (*s) {
  8920     1239  0874               	movf	puts@s+1,w
  8921     123A  1283               	bcf	3,5	;RP0=0, select bank0
  8922     123B  1303               	bcf	3,6	;RP1=0, select bank0
  8923     123C  00FF               	movwf	btemp+1
  8924     123D  0873               	movf	puts@s,w
  8925     123E  0084               	movwf	4
  8926     123F  160A  118A  2000  160A  118A  	fcall	stringtab
  8927     1244  3A00               	xorlw	0
  8928     1245  1D03               	skipz
  8929     1246  2A48               	goto	u3671
  8930     1247  2A49               	goto	u3670
  8931     1248                     u3671:
  8932     1248  2A25               	goto	l4267
  8933     1249                     u3670:
  8934     1249                     l582:
  8935     1249  0008               	return
  8936     124A                     __end_of_puts:
  8937                           
  8938                           	psect	text30
  8939     10E4                     __ptext30:	
  8940 ;; *************** function _putchar *****************
  8941 ;; Defined at:
  8942 ;;		line 27 in file "uart.c"
  8943 ;; Parameters:    Size  Location     Type
  8944 ;;  data            1    wreg     unsigned char 
  8945 ;; Auto vars:     Size  Location     Type
  8946 ;;  data            1    2[COMMON] unsigned char 
  8947 ;; Return value:  Size  Location     Type
  8948 ;;                  1    wreg      void 
  8949 ;; Registers used:
  8950 ;;		wreg
  8951 ;; Tracked objects:
  8952 ;;		On entry : 0/0
  8953 ;;		On exit  : 0/0
  8954 ;;		Unchanged: 0/0
  8955 ;; Data sizes:     COMMON   BANK0   BANK1   BANK3   BANK2
  8956 ;;      Params:         0       0       0       0       0
  8957 ;;      Locals:         1       0       0       0       0
  8958 ;;      Temps:          0       0       0       0       0
  8959 ;;      Totals:         1       0       0       0       0
  8960 ;;Total ram usage:        1 bytes
  8961 ;; Hardware stack levels used: 1
  8962 ;; Hardware stack levels required when called: 1
  8963 ;; This function calls:
  8964 ;;		Nothing
  8965 ;; This function is called by:
  8966 ;;		_download_records
  8967 ;;		_puts
  8968 ;; This function uses a non-reentrant model
  8969 ;;
  8970                           
  8971     10E4                     _putchar:	
  8972                           ;psect for function _putchar
  8973                           
  8974                           
  8975                           ;incstack = 0
  8976                           ; Regs used in _putchar: [wreg]
  8977                           ;putchar@data stored from wreg
  8978     10E4  00F2               	movwf	putchar@data
  8979     10E5                     l4177:
  8980                           
  8981                           ;uart.c: 29:     TXREG = data;
  8982     10E5  0872               	movf	putchar@data,w
  8983     10E6  1283               	bcf	3,5	;RP0=0, select bank0
  8984     10E7  1303               	bcf	3,6	;RP1=0, select bank0
  8985     10E8  0099               	movwf	25	;volatile
  8986     10E9                     l574:	
  8987                           ;uart.c: 34:     } while (TXIF != 1);
  8988                           
  8989     10E9  1E0C               	btfss	12,4	;volatile
  8990     10EA  28EC               	goto	u3541
  8991     10EB  28ED               	goto	u3540
  8992     10EC                     u3541:
  8993     10EC  28E9               	goto	l574
  8994     10ED                     u3540:
  8995     10ED                     l575:
  8996                           
  8997                           ;uart.c: 37:     TXIF = 0;
  8998     10ED  120C               	bcf	12,4	;volatile
  8999     10EE                     l576:
  9000     10EE  0008               	return
  9001     10EF                     __end_of_putchar:
  9002                           
  9003                           	psect	text31
  9004     12A0                     __ptext31:	
  9005 ;; *************** function _eeprom_read *****************
  9006 ;; Defined at:
  9007 ;;		line 3 in file "External_EEPROM_AT24C04.c"
  9008 ;; Parameters:    Size  Location     Type
  9009 ;;  addr            1    wreg     unsigned char 
  9010 ;; Auto vars:     Size  Location     Type
  9011 ;;  addr            1    4[COMMON] unsigned char 
  9012 ;;  data            1    5[COMMON] unsigned char 
  9013 ;; Return value:  Size  Location     Type
  9014 ;;                  1    wreg      unsigned char 
  9015 ;; Registers used:
  9016 ;;		wreg, status,2, status,0, pclath, cstack
  9017 ;; Tracked objects:
  9018 ;;		On entry : 0/0
  9019 ;;		On exit  : 0/0
  9020 ;;		Unchanged: 0/0
  9021 ;; Data sizes:     COMMON   BANK0   BANK1   BANK3   BANK2
  9022 ;;      Params:         0       0       0       0       0
  9023 ;;      Locals:         2       0       0       0       0
  9024 ;;      Temps:          0       0       0       0       0
  9025 ;;      Totals:         2       0       0       0       0
  9026 ;;Total ram usage:        2 bytes
  9027 ;; Hardware stack levels used: 1
  9028 ;; Hardware stack levels required when called: 4
  9029 ;; This function calls:
  9030 ;;		_i2c_read
  9031 ;;		_i2c_rep_start
  9032 ;;		_i2c_start
  9033 ;;		_i2c_stop
  9034 ;;		_i2c_write
  9035 ;; This function is called by:
  9036 ;;		_login
  9037 ;;		_view_records
  9038 ;;		_download_records
  9039 ;; This function uses a non-reentrant model
  9040 ;;
  9041                           
  9042     12A0                     _eeprom_read:	
  9043                           ;psect for function _eeprom_read
  9044                           
  9045                           
  9046                           ;incstack = 0
  9047                           ; Regs used in _eeprom_read: [wreg+status,2+status,0+pclath+cstack]
  9048                           ;eeprom_read@addr stored from wreg
  9049     12A0  00F4               	movwf	eeprom_read@addr
  9050     12A1                     l4309:
  9051                           
  9052                           ;External_EEPROM_AT24C04.c: 4:     unsigned char data;;External_EEPROM_AT24C04.c: 6:    
      +                           i2c_start();
  9053     12A1  160A  118A  20BC  160A  118A  	fcall	_i2c_start
  9054                           
  9055                           ;External_EEPROM_AT24C04.c: 7:     i2c_write(0xA0);
  9056     12A6  30A0               	movlw	160
  9057     12A7  160A  118A  20D9  160A  118A  	fcall	_i2c_write
  9058                           
  9059                           ;External_EEPROM_AT24C04.c: 8:     i2c_write(addr);
  9060     12AC  0874               	movf	eeprom_read@addr,w
  9061     12AD  160A  118A  20D9  160A  118A  	fcall	_i2c_write
  9062                           
  9063                           ;External_EEPROM_AT24C04.c: 9:     i2c_rep_start();
  9064     12B2  160A  118A  20CE  160A  118A  	fcall	_i2c_rep_start
  9065                           
  9066                           ;External_EEPROM_AT24C04.c: 10:     i2c_write(0xA1);
  9067     12B7  30A1               	movlw	161
  9068     12B8  160A  118A  20D9  160A  118A  	fcall	_i2c_write
  9069                           
  9070                           ;External_EEPROM_AT24C04.c: 11:     data = i2c_read(0);
  9071     12BD  3000               	movlw	0
  9072     12BE  120A  118A  26DE  160A  118A  	fcall	_i2c_read
  9073     12C3  00F5               	movwf	eeprom_read@data
  9074                           
  9075                           ;External_EEPROM_AT24C04.c: 12:     i2c_stop();
  9076     12C4  160A  118A  20C5  160A  118A  	fcall	_i2c_stop
  9077     12C9                     l4311:
  9078                           
  9079                           ;External_EEPROM_AT24C04.c: 14:     return data;
  9080     12C9  0875               	movf	eeprom_read@data,w
  9081     12CA                     l497:
  9082     12CA  0008               	return
  9083     12CB                     __end_of_eeprom_read:
  9084                           
  9085                           	psect	text32
  9086     1172                     __ptext32:	
  9087 ;; *************** function ___bmul *****************
  9088 ;; Defined at:
  9089 ;;		line 4 in file "C:\Program Files\Microchip\xc8\v2.46\pic\sources\c99\common\Umul8.c"
  9090 ;; Parameters:    Size  Location     Type
  9091 ;;  multiplier      1    wreg     unsigned char 
  9092 ;;  multiplicand    1    2[COMMON] unsigned char 
  9093 ;; Auto vars:     Size  Location     Type
  9094 ;;  multiplier      1    4[COMMON] unsigned char 
  9095 ;;  product         1    3[COMMON] unsigned char 
  9096 ;; Return value:  Size  Location     Type
  9097 ;;                  1    wreg      unsigned char 
  9098 ;; Registers used:
  9099 ;;		wreg, status,2, status,0, btemp+1
  9100 ;; Tracked objects:
  9101 ;;		On entry : 0/0
  9102 ;;		On exit  : 0/0
  9103 ;;		Unchanged: 0/0
  9104 ;; Data sizes:     COMMON   BANK0   BANK1   BANK3   BANK2
  9105 ;;      Params:         1       0       0       0       0
  9106 ;;      Locals:         2       0       0       0       0
  9107 ;;      Temps:          0       0       0       0       0
  9108 ;;      Totals:         3       0       0       0       0
  9109 ;;Total ram usage:        3 bytes
  9110 ;; Hardware stack levels used: 1
  9111 ;; Hardware stack levels required when called: 1
  9112 ;; This function calls:
  9113 ;;		Nothing
  9114 ;; This function is called by:
  9115 ;;		_store_records_EEPROM
  9116 ;;		_view_records
  9117 ;;		_download_records
  9118 ;; This function uses a non-reentrant model
  9119 ;;
  9120                           
  9121     1172                     ___bmul:	
  9122                           ;psect for function ___bmul
  9123                           
  9124                           
  9125                           ;incstack = 0
  9126                           ; Regs used in ___bmul: [wreg+status,2+status,0+btemp+1]
  9127                           ;___bmul@multiplier stored from wreg
  9128     1172  00F4               	movwf	___bmul@multiplier
  9129     1173                     l4179:
  9130     1173  01F3               	clrf	___bmul@product
  9131     1174                     l4181:
  9132     1174  1C74               	btfss	___bmul@multiplier,0
  9133     1175  2977               	goto	u3551
  9134     1176  2978               	goto	u3550
  9135     1177                     u3551:
  9136     1177  297C               	goto	l4185
  9137     1178                     u3550:
  9138     1178                     l4183:
  9139     1178  0872               	movf	___bmul@multiplicand,w
  9140     1179  00FF               	movwf	btemp+1
  9141     117A  087F               	movf	btemp+1,w
  9142     117B  07F3               	addwf	___bmul@product,f
  9143     117C                     l4185:
  9144     117C  1003               	clrc
  9145     117D  0DF2               	rlf	___bmul@multiplicand,f
  9146     117E                     l4187:
  9147     117E  1003               	clrc
  9148     117F  0CF4               	rrf	___bmul@multiplier,f
  9149     1180                     l4189:
  9150     1180  0874               	movf	___bmul@multiplier,w
  9151     1181  1D03               	btfss	3,2
  9152     1182  2984               	goto	u3561
  9153     1183  2985               	goto	u3560
  9154     1184                     u3561:
  9155     1184  2974               	goto	l4181
  9156     1185                     u3560:
  9157     1185                     l4191:
  9158     1185  0873               	movf	___bmul@product,w
  9159     1186                     l694:
  9160     1186  0008               	return
  9161     1187                     __end_of___bmul:
  9162                           
  9163                           	psect	text33
  9164     09D4                     __ptext33:	
  9165 ;; *************** function _display_menu *****************
  9166 ;; Defined at:
  9167 ;;		line 193 in file "function_definitions.c"
  9168 ;; Parameters:    Size  Location     Type
  9169 ;;  key             1    wreg     unsigned char 
  9170 ;;  reset_flag      1    2[BANK0 ] unsigned char 
  9171 ;; Auto vars:     Size  Location     Type
  9172 ;;  key             1    5[BANK0 ] unsigned char 
  9173 ;; Return value:  Size  Location     Type
  9174 ;;                  1    wreg      unsigned char 
  9175 ;; Registers used:
  9176 ;;		wreg, fsr0l, fsr0h, status,2, status,0, btemp+1, pclath, cstack
  9177 ;; Tracked objects:
  9178 ;;		On entry : 0/0
  9179 ;;		On exit  : 0/0
  9180 ;;		Unchanged: 0/0
  9181 ;; Data sizes:     COMMON   BANK0   BANK1   BANK3   BANK2
  9182 ;;      Params:         0       1       0       0       0
  9183 ;;      Locals:         0       1       0       0       0
  9184 ;;      Temps:          0       2       0       0       0
  9185 ;;      Totals:         0       4       0       0       0
  9186 ;;Total ram usage:        4 bytes
  9187 ;; Hardware stack levels used: 1
  9188 ;; Hardware stack levels required when called: 3
  9189 ;; This function calls:
  9190 ;;		_clcd_print
  9191 ;;		_clcd_putch
  9192 ;;		_clear_screen
  9193 ;; This function is called by:
  9194 ;;		_main
  9195 ;; This function uses a non-reentrant model
  9196 ;;
  9197                           
  9198     09D4                     _display_menu:	
  9199                           ;psect for function _display_menu
  9200                           
  9201                           
  9202                           ;incstack = 0
  9203                           ; Regs used in _display_menu: [wreg-fsr0h+status,2+status,0+btemp+1+pclath+cstack]
  9204                           ;display_menu@key stored from wreg
  9205     09D4  1283               	bcf	3,5	;RP0=0, select bank0
  9206     09D5  1303               	bcf	3,6	;RP1=0, select bank0
  9207     09D6  00CE               	movwf	display_menu@key
  9208     09D7                     l4723:
  9209                           
  9210                           ;function_definitions.c: 195:     static unsigned char menu_pos;;function_definitions.c:
      +                           198:     if (return_time == 0) {
  9211     09D7  083D               	movf	_return_time,w
  9212     09D8  1D03               	btfss	3,2
  9213     09D9  29DB               	goto	u4401
  9214     09DA  29DC               	goto	u4400
  9215     09DB                     u4401:
  9216     09DB  29DE               	goto	l4729
  9217     09DC                     u4400:
  9218     09DC                     l4725:
  9219                           
  9220                           ;function_definitions.c: 200:         return 0x33;
  9221     09DC  3033               	movlw	51
  9222     09DD  2A7F               	goto	l380
  9223     09DE                     l4729:
  9224                           
  9225                           ;function_definitions.c: 204:     if (reset_flag == 0x05) {
  9226     09DE  3005               	movlw	5
  9227     09DF  064B               	xorwf	display_menu@reset_flag,w
  9228     09E0  1D03               	btfss	3,2
  9229     09E1  29E3               	goto	u4411
  9230     09E2  29E4               	goto	u4410
  9231     09E3                     u4411:
  9232     09E3  29E7               	goto	l4735
  9233     09E4                     u4410:
  9234     09E4                     l4731:
  9235                           
  9236                           ;function_definitions.c: 205:         return_time = 15;
  9237     09E4  300F               	movlw	15
  9238     09E5  00BD               	movwf	_return_time
  9239     09E6                     l4733:
  9240                           
  9241                           ;function_definitions.c: 206:         menu_pos = 0;
  9242     09E6  01B9               	clrf	display_menu@menu_pos
  9243     09E7                     l4735:
  9244                           
  9245                           ;function_definitions.c: 210:     if (key == 0x37 && menu_pos > 0) {
  9246     09E7  3037               	movlw	55
  9247     09E8  064E               	xorwf	display_menu@key,w
  9248     09E9  1D03               	btfss	3,2
  9249     09EA  29EC               	goto	u4421
  9250     09EB  29ED               	goto	u4420
  9251     09EC                     u4421:
  9252     09EC  29FC               	goto	l4745
  9253     09ED                     u4420:
  9254     09ED                     l4737:
  9255     09ED  0839               	movf	display_menu@menu_pos,w
  9256     09EE  1903               	btfsc	3,2
  9257     09EF  29F1               	goto	u4431
  9258     09F0  29F2               	goto	u4430
  9259     09F1                     u4431:
  9260     09F1  29FC               	goto	l4745
  9261     09F2                     u4430:
  9262     09F2                     l4739:
  9263                           
  9264                           ;function_definitions.c: 211:         return_time = 15;
  9265     09F2  300F               	movlw	15
  9266     09F3  00BD               	movwf	_return_time
  9267     09F4                     l4741:
  9268                           
  9269                           ;function_definitions.c: 212:         menu_pos--;
  9270     09F4  3001               	movlw	1
  9271     09F5  02B9               	subwf	display_menu@menu_pos,f
  9272     09F6                     l4743:
  9273                           
  9274                           ;function_definitions.c: 213:         clear_screen();
  9275     09F6  160A  118A  2114  120A  158A  	fcall	_clear_screen
  9276                           
  9277                           ;function_definitions.c: 214:     }
  9278     09FB  2A0F               	goto	l4755
  9279     09FC                     l4745:
  9280     09FC  302F               	movlw	47
  9281     09FD  064E               	xorwf	display_menu@key,w
  9282     09FE  1D03               	btfss	3,2
  9283     09FF  2A01               	goto	u4441
  9284     0A00  2A02               	goto	u4440
  9285     0A01                     u4441:
  9286     0A01  2A0F               	goto	l4755
  9287     0A02                     u4440:
  9288     0A02                     l4747:
  9289     0A02  3004               	movlw	4
  9290     0A03  0239               	subwf	display_menu@menu_pos,w
  9291     0A04  1803               	skipnc
  9292     0A05  2A07               	goto	u4451
  9293     0A06  2A08               	goto	u4450
  9294     0A07                     u4451:
  9295     0A07  2A0F               	goto	l4755
  9296     0A08                     u4450:
  9297     0A08                     l4749:
  9298                           
  9299                           ;function_definitions.c: 216:         return_time = 15;
  9300     0A08  300F               	movlw	15
  9301     0A09  00BD               	movwf	_return_time
  9302     0A0A                     l4751:
  9303                           
  9304                           ;function_definitions.c: 217:         menu_pos++;
  9305     0A0A  3001               	movlw	1
  9306     0A0B  00FF               	movwf	btemp+1
  9307     0A0C  087F               	movf	btemp+1,w
  9308     0A0D  07B9               	addwf	display_menu@menu_pos,f
  9309     0A0E  29F6               	goto	l4743
  9310     0A0F                     l4755:
  9311                           
  9312                           ;function_definitions.c: 221:     if (menu_pos == 4) {
  9313     0A0F  3004               	movlw	4
  9314     0A10  1283               	bcf	3,5	;RP0=0, select bank0
  9315     0A11  1303               	bcf	3,6	;RP1=0, select bank0
  9316     0A12  0639               	xorwf	display_menu@menu_pos,w
  9317     0A13  1D03               	btfss	3,2
  9318     0A14  2A16               	goto	u4461
  9319     0A15  2A17               	goto	u4460
  9320     0A16                     u4461:
  9321     0A16  2A4A               	goto	l4763
  9322     0A17                     u4460:
  9323     0A17                     l4757:
  9324                           
  9325                           ;function_definitions.c: 222:         clcd_putch('*', (0xC0 + 0));
  9326     0A17  30C0               	movlw	192
  9327     0A18  00C9               	movwf	clcd_putch@addr
  9328     0A19  302A               	movlw	42
  9329     0A1A  160A  118A  215D  120A  158A  	fcall	_clcd_putch
  9330     0A1F                     l4759:
  9331                           
  9332                           ;function_definitions.c: 223:         clcd_print(menu[menu_pos - 1], (0x80 + 2));
  9333     0A1F  1283               	bcf	3,5	;RP0=0, select bank0
  9334     0A20  1303               	bcf	3,6	;RP1=0, select bank0
  9335     0A21  0839               	movf	display_menu@menu_pos,w
  9336     0A22  00CC               	movwf	??_display_menu
  9337     0A23  074C               	addwf	??_display_menu,w
  9338     0A24  3EAA               	addlw	(low ((_menu| 0+254)))& (0+255)
  9339     0A25  0084               	movwf	4
  9340     0A26  1383               	bcf	3,7	;select IRP bank1
  9341     0A27  0800               	movf	0,w
  9342     0A28  00F6               	movwf	clcd_print@str
  9343     0A29  0A84               	incf	4,f
  9344     0A2A  0800               	movf	0,w
  9345     0A2B  0384               	decf	4,f
  9346     0A2C  00F7               	movwf	clcd_print@str+1
  9347     0A2D  3082               	movlw	130
  9348     0A2E  00F8               	movwf	clcd_print@addr
  9349     0A2F  160A  118A  22F8  120A  158A  	fcall	_clcd_print
  9350     0A34                     l4761:
  9351                           
  9352                           ;function_definitions.c: 224:         clcd_print(menu[menu_pos], (0xC0 + 2));
  9353     0A34  1283               	bcf	3,5	;RP0=0, select bank0
  9354     0A35  1303               	bcf	3,6	;RP1=0, select bank0
  9355     0A36  0839               	movf	display_menu@menu_pos,w
  9356     0A37  00CC               	movwf	??_display_menu
  9357     0A38  074C               	addwf	??_display_menu,w
  9358     0A39  3EAC               	addlw	(low (_menu| 0))& (0+255)
  9359     0A3A  0084               	movwf	4
  9360     0A3B  1383               	bcf	3,7	;select IRP bank1
  9361     0A3C  0800               	movf	0,w
  9362     0A3D  00F6               	movwf	clcd_print@str
  9363     0A3E  0A84               	incf	4,f
  9364     0A3F  0800               	movf	0,w
  9365     0A40  0384               	decf	4,f
  9366     0A41  00F7               	movwf	clcd_print@str+1
  9367     0A42  30C2               	movlw	194
  9368     0A43  00F8               	movwf	clcd_print@addr
  9369     0A44  160A  118A  22F8  120A  158A  	fcall	_clcd_print
  9370                           
  9371                           ;function_definitions.c: 225:     } else {
  9372     0A49  2A7C               	goto	l4769
  9373     0A4A                     l4763:
  9374                           
  9375                           ;function_definitions.c: 226:         clcd_putch('*', (0x80 + 0));
  9376     0A4A  3080               	movlw	128
  9377     0A4B  00C9               	movwf	clcd_putch@addr
  9378     0A4C  302A               	movlw	42
  9379     0A4D  160A  118A  215D  120A  158A  	fcall	_clcd_putch
  9380     0A52                     l4765:
  9381                           
  9382                           ;function_definitions.c: 227:         clcd_print(menu[menu_pos], (0x80 + 2));
  9383     0A52  1283               	bcf	3,5	;RP0=0, select bank0
  9384     0A53  1303               	bcf	3,6	;RP1=0, select bank0
  9385     0A54  0839               	movf	display_menu@menu_pos,w
  9386     0A55  00CC               	movwf	??_display_menu
  9387     0A56  074C               	addwf	??_display_menu,w
  9388     0A57  3EAC               	addlw	(low (_menu| 0))& (0+255)
  9389     0A58  0084               	movwf	4
  9390     0A59  1383               	bcf	3,7	;select IRP bank1
  9391     0A5A  0800               	movf	0,w
  9392     0A5B  00F6               	movwf	clcd_print@str
  9393     0A5C  0A84               	incf	4,f
  9394     0A5D  0800               	movf	0,w
  9395     0A5E  0384               	decf	4,f
  9396     0A5F  00F7               	movwf	clcd_print@str+1
  9397     0A60  3082               	movlw	130
  9398     0A61  00F8               	movwf	clcd_print@addr
  9399     0A62  160A  118A  22F8  120A  158A  	fcall	_clcd_print
  9400     0A67                     l4767:
  9401                           
  9402                           ;function_definitions.c: 228:         clcd_print(menu[menu_pos + 1], (0xC0 + 2));
  9403     0A67  1283               	bcf	3,5	;RP0=0, select bank0
  9404     0A68  1303               	bcf	3,6	;RP1=0, select bank0
  9405     0A69  0839               	movf	display_menu@menu_pos,w
  9406     0A6A  00CC               	movwf	??_display_menu
  9407     0A6B  074C               	addwf	??_display_menu,w
  9408     0A6C  3EAE               	addlw	(low ((_menu| 0+2)))& (0+255)
  9409     0A6D  0084               	movwf	4
  9410     0A6E  1383               	bcf	3,7	;select IRP bank1
  9411     0A6F  0800               	movf	0,w
  9412     0A70  00F6               	movwf	clcd_print@str
  9413     0A71  0A84               	incf	4,f
  9414     0A72  0800               	movf	0,w
  9415     0A73  0384               	decf	4,f
  9416     0A74  00F7               	movwf	clcd_print@str+1
  9417     0A75  30C2               	movlw	194
  9418     0A76  00F8               	movwf	clcd_print@addr
  9419     0A77  160A  118A  22F8  120A  158A  	fcall	_clcd_print
  9420     0A7C                     l4769:
  9421                           
  9422                           ;function_definitions.c: 230:     return menu_pos;
  9423     0A7C  1283               	bcf	3,5	;RP0=0, select bank0
  9424     0A7D  1303               	bcf	3,6	;RP1=0, select bank0
  9425     0A7E  0839               	movf	display_menu@menu_pos,w
  9426     0A7F                     l380:
  9427     0A7F  0008               	return
  9428     0A80                     __end_of_display_menu:
  9429                           
  9430                           	psect	text34
  9431     1114                     __ptext34:	
  9432 ;; *************** function _clear_screen *****************
  9433 ;; Defined at:
  9434 ;;		line 638 in file "function_definitions.c"
  9435 ;; Parameters:    Size  Location     Type
  9436 ;;		None
  9437 ;; Auto vars:     Size  Location     Type
  9438 ;;		None
  9439 ;; Return value:  Size  Location     Type
  9440 ;;                  1    wreg      void 
  9441 ;; Registers used:
  9442 ;;		wreg, status,2, status,0, pclath, cstack
  9443 ;; Tracked objects:
  9444 ;;		On entry : 0/0
  9445 ;;		On exit  : 0/0
  9446 ;;		Unchanged: 0/0
  9447 ;; Data sizes:     COMMON   BANK0   BANK1   BANK3   BANK2
  9448 ;;      Params:         0       0       0       0       0
  9449 ;;      Locals:         0       0       0       0       0
  9450 ;;      Temps:          2       0       0       0       0
  9451 ;;      Totals:         2       0       0       0       0
  9452 ;;Total ram usage:        2 bytes
  9453 ;; Hardware stack levels used: 1
  9454 ;; Hardware stack levels required when called: 2
  9455 ;; This function calls:
  9456 ;;		_clcd_write
  9457 ;; This function is called by:
  9458 ;;		_main
  9459 ;;		_login
  9460 ;;		_display_menu
  9461 ;;		_password_change
  9462 ;; This function uses a non-reentrant model
  9463 ;;
  9464                           
  9465     1114                     _clear_screen:	
  9466                           ;psect for function _clear_screen
  9467                           
  9468     1114                     l4273:	
  9469                           ;incstack = 0
  9470                           ; Regs used in _clear_screen: [wreg+status,2+status,0+pclath+cstack]
  9471                           
  9472                           
  9473                           ;function_definitions.c: 639:     clcd_write(0x01, 0);
  9474     1114  01F2               	clrf	clcd_write@mode
  9475     1115  3001               	movlw	1
  9476     1116  160A  118A  23BB  160A  118A  	fcall	_clcd_write
  9477     111B                     l4275:
  9478                           
  9479                           ;function_definitions.c: 640:     _delay((unsigned long)((500)*(20000000/4000000.0)));
  9480     111B  3004               	movlw	4
  9481     111C  00F7               	movwf	??_clear_screen+1
  9482     111D  303D               	movlw	61
  9483     111E  00F6               	movwf	??_clear_screen
  9484     111F                     u5377:
  9485     111F  0BF6               	decfsz	??_clear_screen,f
  9486     1120  291F               	goto	u5377
  9487     1121  0BF7               	decfsz	??_clear_screen+1,f
  9488     1122  291F               	goto	u5377
  9489     1123  2924               	nop2
  9490     1124                     l484:
  9491     1124  0008               	return
  9492     1125                     __end_of_clear_screen:
  9493                           
  9494                           	psect	text35
  9495     162E                     __ptext35:	
  9496 ;; *************** function _display_dashboard *****************
  9497 ;; Defined at:
  9498 ;;		line 57 in file "function_definitions.c"
  9499 ;; Parameters:    Size  Location     Type
  9500 ;;  event           1    wreg     PTR unsigned char 
  9501 ;;		 -> main@event(3), 
  9502 ;;  speed           1    2[BANK0 ] unsigned char 
  9503 ;; Auto vars:     Size  Location     Type
  9504 ;;  event           1    5[BANK0 ] PTR unsigned char 
  9505 ;;		 -> main@event(3), 
  9506 ;; Return value:  Size  Location     Type
  9507 ;;                  1    wreg      void 
  9508 ;; Registers used:
  9509 ;;		wreg, fsr0l, fsr0h, status,2, status,0, btemp+1, pclath, cstack
  9510 ;; Tracked objects:
  9511 ;;		On entry : 0/0
  9512 ;;		On exit  : 0/0
  9513 ;;		Unchanged: 0/0
  9514 ;; Data sizes:     COMMON   BANK0   BANK1   BANK3   BANK2
  9515 ;;      Params:         0       1       0       0       0
  9516 ;;      Locals:         0       1       0       0       0
  9517 ;;      Temps:          0       2       0       0       0
  9518 ;;      Totals:         0       4       0       0       0
  9519 ;;Total ram usage:        4 bytes
  9520 ;; Hardware stack levels used: 1
  9521 ;; Hardware stack levels required when called: 7
  9522 ;; This function calls:
  9523 ;;		___awdiv
  9524 ;;		___awmod
  9525 ;;		_clcd_print
  9526 ;;		_clcd_putch
  9527 ;;		_display_time
  9528 ;; This function is called by:
  9529 ;;		_main
  9530 ;; This function uses a non-reentrant model
  9531 ;;
  9532                           
  9533     162E                     _display_dashboard:	
  9534                           ;psect for function _display_dashboard
  9535                           
  9536                           
  9537                           ;incstack = 0
  9538                           ; Regs used in _display_dashboard: [wreg-fsr0h+status,2+status,0+btemp+1+pclath+cstack]
  9539                           ;display_dashboard@event stored from wreg
  9540     162E  1283               	bcf	3,5	;RP0=0, select bank0
  9541     162F  1303               	bcf	3,6	;RP1=0, select bank0
  9542     1630  00CE               	movwf	display_dashboard@event
  9543     1631                     l4599:
  9544                           
  9545                           ;function_definitions.c: 59:     clcd_print("TIME     E  SP", (0x80 + 2));
  9546     1631  308E               	movlw	low ((STR_12+2)| (0+32768))
  9547     1632  00F6               	movwf	clcd_print@str
  9548     1633  3087               	movlw	high ((STR_12+2)| (0+32768))
  9549     1634  00F7               	movwf	clcd_print@str+1
  9550     1635  3082               	movlw	130
  9551     1636  00F8               	movwf	clcd_print@addr
  9552     1637  160A  118A  22F8  160A  118A  	fcall	_clcd_print
  9553     163C                     l4601:
  9554                           
  9555                           ;function_definitions.c: 62:     display_time();
  9556     163C  160A  118A  25D8  160A  118A  	fcall	_display_time
  9557     1641                     l4603:
  9558                           
  9559                           ;function_definitions.c: 65:     clcd_print(event, (0xC0 + 11));
  9560     1641  1283               	bcf	3,5	;RP0=0, select bank0
  9561     1642  1303               	bcf	3,6	;RP1=0, select bank0
  9562     1643  084E               	movf	display_dashboard@event,w
  9563     1644  00F6               	movwf	clcd_print@str
  9564     1645  3000               	movlw	0
  9565     1646  00F7               	movwf	clcd_print@str+1
  9566     1647  30CB               	movlw	203
  9567     1648  00F8               	movwf	clcd_print@addr
  9568     1649  160A  118A  22F8  160A  118A  	fcall	_clcd_print
  9569     164E                     l4605:
  9570                           
  9571                           ;function_definitions.c: 68:     clcd_putch((speed / 10) + '0', (0xC0 + 14));
  9572     164E  30CE               	movlw	206
  9573     164F  1283               	bcf	3,5	;RP0=0, select bank0
  9574     1650  1303               	bcf	3,6	;RP1=0, select bank0
  9575     1651  00C9               	movwf	clcd_putch@addr
  9576     1652  300A               	movlw	10
  9577     1653  00F2               	movwf	___awdiv@divisor
  9578     1654  3000               	movlw	0
  9579     1655  00F3               	movwf	___awdiv@divisor+1
  9580     1656  084B               	movf	display_dashboard@speed,w
  9581     1657  00CC               	movwf	??_display_dashboard
  9582     1658  01CD               	clrf	??_display_dashboard+1
  9583     1659  084C               	movf	??_display_dashboard,w
  9584     165A  00F4               	movwf	___awdiv@dividend
  9585     165B  084D               	movf	??_display_dashboard+1,w
  9586     165C  00F5               	movwf	___awdiv@dividend+1
  9587     165D  160A  118A  2799  160A  118A  	fcall	___awdiv
  9588     1662  0872               	movf	?___awdiv,w
  9589     1663  3E30               	addlw	48
  9590     1664  160A  118A  215D  160A  118A  	fcall	_clcd_putch
  9591     1669                     l4607:
  9592                           
  9593                           ;function_definitions.c: 69:     clcd_putch((speed % 10) + '0', (0xC0 + 15));
  9594     1669  30CF               	movlw	207
  9595     166A  1283               	bcf	3,5	;RP0=0, select bank0
  9596     166B  1303               	bcf	3,6	;RP1=0, select bank0
  9597     166C  00C9               	movwf	clcd_putch@addr
  9598     166D  300A               	movlw	10
  9599     166E  00F2               	movwf	___awmod@divisor
  9600     166F  3000               	movlw	0
  9601     1670  00F3               	movwf	___awmod@divisor+1
  9602     1671  084B               	movf	display_dashboard@speed,w
  9603     1672  00CC               	movwf	??_display_dashboard
  9604     1673  01CD               	clrf	??_display_dashboard+1
  9605     1674  084C               	movf	??_display_dashboard,w
  9606     1675  00F4               	movwf	___awmod@dividend
  9607     1676  084D               	movf	??_display_dashboard+1,w
  9608     1677  00F5               	movwf	___awmod@dividend+1
  9609     1678  160A  118A  26DD  160A  118A  	fcall	___awmod
  9610     167D  0872               	movf	?___awmod,w
  9611     167E  3E30               	addlw	48
  9612     167F  160A  118A  215D  160A  118A  	fcall	_clcd_putch
  9613     1684                     l340:
  9614     1684  0008               	return
  9615     1685                     __end_of_display_dashboard:
  9616                           
  9617                           	psect	text36
  9618     15D8                     __ptext36:	
  9619 ;; *************** function _display_time *****************
  9620 ;; Defined at:
  9621 ;;		line 43 in file "function_definitions.c"
  9622 ;; Parameters:    Size  Location     Type
  9623 ;;		None
  9624 ;; Auto vars:     Size  Location     Type
  9625 ;;		None
  9626 ;; Return value:  Size  Location     Type
  9627 ;;                  1    wreg      void 
  9628 ;; Registers used:
  9629 ;;		wreg, status,2, status,0, pclath, cstack
  9630 ;; Tracked objects:
  9631 ;;		On entry : 0/0
  9632 ;;		On exit  : 0/0
  9633 ;;		Unchanged: 0/0
  9634 ;; Data sizes:     COMMON   BANK0   BANK1   BANK3   BANK2
  9635 ;;      Params:         0       0       0       0       0
  9636 ;;      Locals:         0       0       0       0       0
  9637 ;;      Temps:          0       0       0       0       0
  9638 ;;      Totals:         0       0       0       0       0
  9639 ;;Total ram usage:        0 bytes
  9640 ;; Hardware stack levels used: 1
  9641 ;; Hardware stack levels required when called: 6
  9642 ;; This function calls:
  9643 ;;		_clcd_putch
  9644 ;;		_get_time
  9645 ;; This function is called by:
  9646 ;;		_display_dashboard
  9647 ;; This function uses a non-reentrant model
  9648 ;;
  9649                           
  9650     15D8                     _display_time:	
  9651                           ;psect for function _display_time
  9652                           
  9653     15D8                     l4277:	
  9654                           ;incstack = 0
  9655                           ; Regs used in _display_time: [wreg+status,2+status,0+pclath+cstack]
  9656                           
  9657                           
  9658                           ;function_definitions.c: 44:     get_time();
  9659     15D8  160A  118A  253B  160A  118A  	fcall	_get_time
  9660                           
  9661                           ;function_definitions.c: 45:     clcd_putch(time[0], (0xC0 + 0));
  9662     15DD  30C0               	movlw	192
  9663     15DE  1283               	bcf	3,5	;RP0=0, select bank0
  9664     15DF  1303               	bcf	3,6	;RP1=0, select bank0
  9665     15E0  00C9               	movwf	clcd_putch@addr
  9666     15E1  083E               	movf	_time,w
  9667     15E2  160A  118A  215D  160A  118A  	fcall	_clcd_putch
  9668                           
  9669                           ;function_definitions.c: 46:     clcd_putch(time[1], (0xC0 + 1));
  9670     15E7  30C1               	movlw	193
  9671     15E8  1283               	bcf	3,5	;RP0=0, select bank0
  9672     15E9  1303               	bcf	3,6	;RP1=0, select bank0
  9673     15EA  00C9               	movwf	clcd_putch@addr
  9674     15EB  083F               	movf	_time+1,w
  9675     15EC  160A  118A  215D  160A  118A  	fcall	_clcd_putch
  9676                           
  9677                           ;function_definitions.c: 47:     clcd_putch(':', (0xC0 + 2));
  9678     15F1  30C2               	movlw	194
  9679     15F2  1283               	bcf	3,5	;RP0=0, select bank0
  9680     15F3  1303               	bcf	3,6	;RP1=0, select bank0
  9681     15F4  00C9               	movwf	clcd_putch@addr
  9682     15F5  303A               	movlw	58
  9683     15F6  160A  118A  215D  160A  118A  	fcall	_clcd_putch
  9684                           
  9685                           ;function_definitions.c: 48:     clcd_putch(time[2], (0xC0 + 3));
  9686     15FB  30C3               	movlw	195
  9687     15FC  1283               	bcf	3,5	;RP0=0, select bank0
  9688     15FD  1303               	bcf	3,6	;RP1=0, select bank0
  9689     15FE  00C9               	movwf	clcd_putch@addr
  9690     15FF  0840               	movf	_time+2,w
  9691     1600  160A  118A  215D  160A  118A  	fcall	_clcd_putch
  9692                           
  9693                           ;function_definitions.c: 49:     clcd_putch(time[3], (0xC0 + 4));
  9694     1605  30C4               	movlw	196
  9695     1606  1283               	bcf	3,5	;RP0=0, select bank0
  9696     1607  1303               	bcf	3,6	;RP1=0, select bank0
  9697     1608  00C9               	movwf	clcd_putch@addr
  9698     1609  0841               	movf	_time+3,w
  9699     160A  160A  118A  215D  160A  118A  	fcall	_clcd_putch
  9700                           
  9701                           ;function_definitions.c: 50:     clcd_putch(':', (0xC0 + 5));
  9702     160F  30C5               	movlw	197
  9703     1610  1283               	bcf	3,5	;RP0=0, select bank0
  9704     1611  1303               	bcf	3,6	;RP1=0, select bank0
  9705     1612  00C9               	movwf	clcd_putch@addr
  9706     1613  303A               	movlw	58
  9707     1614  160A  118A  215D  160A  118A  	fcall	_clcd_putch
  9708                           
  9709                           ;function_definitions.c: 51:     clcd_putch(time[4], (0xC0 + 6));
  9710     1619  30C6               	movlw	198
  9711     161A  1283               	bcf	3,5	;RP0=0, select bank0
  9712     161B  1303               	bcf	3,6	;RP1=0, select bank0
  9713     161C  00C9               	movwf	clcd_putch@addr
  9714     161D  0842               	movf	_time+4,w
  9715     161E  160A  118A  215D  160A  118A  	fcall	_clcd_putch
  9716                           
  9717                           ;function_definitions.c: 52:     clcd_putch(time[5], (0xC0 + 7));
  9718     1623  30C7               	movlw	199
  9719     1624  1283               	bcf	3,5	;RP0=0, select bank0
  9720     1625  1303               	bcf	3,6	;RP1=0, select bank0
  9721     1626  00C9               	movwf	clcd_putch@addr
  9722     1627  0843               	movf	_time+5,w
  9723     1628  160A  118A  215D  160A  118A  	fcall	_clcd_putch
  9724     162D                     l337:
  9725     162D  0008               	return
  9726     162E                     __end_of_display_time:
  9727                           
  9728                           	psect	text37
  9729     153B                     __ptext37:	
  9730 ;; *************** function _get_time *****************
  9731 ;; Defined at:
  9732 ;;		line 21 in file "function_definitions.c"
  9733 ;; Parameters:    Size  Location     Type
  9734 ;;		None
  9735 ;; Auto vars:     Size  Location     Type
  9736 ;;		None
  9737 ;; Return value:  Size  Location     Type
  9738 ;;                  1    wreg      void 
  9739 ;; Registers used:
  9740 ;;		wreg, status,2, status,0, pclath, cstack
  9741 ;; Tracked objects:
  9742 ;;		On entry : 0/0
  9743 ;;		On exit  : 0/0
  9744 ;;		Unchanged: 0/0
  9745 ;; Data sizes:     COMMON   BANK0   BANK1   BANK3   BANK2
  9746 ;;      Params:         0       0       0       0       0
  9747 ;;      Locals:         0       0       0       0       0
  9748 ;;      Temps:          1       0       0       0       0
  9749 ;;      Totals:         1       0       0       0       0
  9750 ;;Total ram usage:        1 bytes
  9751 ;; Hardware stack levels used: 1
  9752 ;; Hardware stack levels required when called: 5
  9753 ;; This function calls:
  9754 ;;		_read_ds1307
  9755 ;; This function is called by:
  9756 ;;		_display_time
  9757 ;;		_record_event
  9758 ;;		_set_time
  9759 ;; This function uses a non-reentrant model
  9760 ;;
  9761                           
  9762     153B                     _get_time:	
  9763                           ;psect for function _get_time
  9764                           
  9765     153B                     l4161:	
  9766                           ;incstack = 0
  9767                           ; Regs used in _get_time: [wreg+status,2+status,0+pclath+cstack]
  9768                           
  9769                           
  9770                           ;function_definitions.c: 23:     clock_reg[0] = read_ds1307(0x02);
  9771     153B  3002               	movlw	2
  9772     153C  160A  118A  2275  160A  118A  	fcall	_read_ds1307
  9773     1541  1283               	bcf	3,5	;RP0=0, select bank0
  9774     1542  1303               	bcf	3,6	;RP1=0, select bank0
  9775     1543  00A6               	movwf	_clock_reg
  9776                           
  9777                           ;function_definitions.c: 24:     clock_reg[1] = read_ds1307(0x01);
  9778     1544  3001               	movlw	1
  9779     1545  160A  118A  2275  160A  118A  	fcall	_read_ds1307
  9780     154A  1283               	bcf	3,5	;RP0=0, select bank0
  9781     154B  1303               	bcf	3,6	;RP1=0, select bank0
  9782     154C  00A7               	movwf	_clock_reg+1
  9783                           
  9784                           ;function_definitions.c: 25:     clock_reg[2] = read_ds1307(0x00);
  9785     154D  3000               	movlw	0
  9786     154E  160A  118A  2275  160A  118A  	fcall	_read_ds1307
  9787     1553  1283               	bcf	3,5	;RP0=0, select bank0
  9788     1554  1303               	bcf	3,6	;RP1=0, select bank0
  9789     1555  00A8               	movwf	_clock_reg+2
  9790     1556                     l4163:
  9791                           
  9792                           ;function_definitions.c: 28:     time[0] = ((clock_reg[0] >> 4) & 0x03) + '0';
  9793     1556  0826               	movf	_clock_reg,w
  9794     1557  00F6               	movwf	??_get_time
  9795     1558  3004               	movlw	4
  9796     1559                     u3515:
  9797     1559  1003               	clrc
  9798     155A  0CF6               	rrf	??_get_time,f
  9799     155B  3EFF               	addlw	-1
  9800     155C  1D03               	skipz
  9801     155D  2D59               	goto	u3515
  9802     155E  0876               	movf	??_get_time,w
  9803     155F  3903               	andlw	3
  9804     1560  3E30               	addlw	48
  9805     1561  00BE               	movwf	_time
  9806     1562                     l4165:
  9807                           
  9808                           ;function_definitions.c: 29:     time[1] = (clock_reg[0] & 0x0F) + '0';
  9809     1562  0826               	movf	_clock_reg,w
  9810     1563  390F               	andlw	15
  9811     1564  3E30               	addlw	48
  9812     1565  00BF               	movwf	_time+1
  9813     1566                     l4167:
  9814                           
  9815                           ;function_definitions.c: 32:     time[2] = ((clock_reg[1] >> 4) & 0x07) + '0';
  9816     1566  0827               	movf	_clock_reg+1,w
  9817     1567  00F6               	movwf	??_get_time
  9818     1568  3004               	movlw	4
  9819     1569                     u3525:
  9820     1569  1003               	clrc
  9821     156A  0CF6               	rrf	??_get_time,f
  9822     156B  3EFF               	addlw	-1
  9823     156C  1D03               	skipz
  9824     156D  2D69               	goto	u3525
  9825     156E  0876               	movf	??_get_time,w
  9826     156F  3907               	andlw	7
  9827     1570  3E30               	addlw	48
  9828     1571  00C0               	movwf	_time+2
  9829     1572                     l4169:
  9830                           
  9831                           ;function_definitions.c: 33:     time[3] = (clock_reg[1] & 0x0F) + '0';
  9832     1572  0827               	movf	_clock_reg+1,w
  9833     1573  390F               	andlw	15
  9834     1574  3E30               	addlw	48
  9835     1575  00C1               	movwf	_time+3
  9836     1576                     l4171:
  9837                           
  9838                           ;function_definitions.c: 36:     time[4] = ((clock_reg[2] >> 4) & 0x07) + '0';
  9839     1576  0828               	movf	_clock_reg+2,w
  9840     1577  00F6               	movwf	??_get_time
  9841     1578  3004               	movlw	4
  9842     1579                     u3535:
  9843     1579  1003               	clrc
  9844     157A  0CF6               	rrf	??_get_time,f
  9845     157B  3EFF               	addlw	-1
  9846     157C  1D03               	skipz
  9847     157D  2D79               	goto	u3535
  9848     157E  0876               	movf	??_get_time,w
  9849     157F  3907               	andlw	7
  9850     1580  3E30               	addlw	48
  9851     1581  00C2               	movwf	_time+4
  9852     1582                     l4173:
  9853                           
  9854                           ;function_definitions.c: 37:     time[5] = (clock_reg[2] & 0x0F) + '0';
  9855     1582  0828               	movf	_clock_reg+2,w
  9856     1583  390F               	andlw	15
  9857     1584  3E30               	addlw	48
  9858     1585  00C3               	movwf	_time+5
  9859     1586                     l4175:
  9860                           
  9861                           ;function_definitions.c: 38:     time[6] = '\0';
  9862     1586  01C4               	clrf	_time+6
  9863     1587                     l334:
  9864     1587  0008               	return
  9865     1588                     __end_of_get_time:
  9866                           
  9867                           	psect	text38
  9868     1275                     __ptext38:	
  9869 ;; *************** function _read_ds1307 *****************
  9870 ;; Defined at:
  9871 ;;		line 11 in file "ds1307.c"
  9872 ;; Parameters:    Size  Location     Type
  9873 ;;  addr            1    wreg     unsigned char 
  9874 ;; Auto vars:     Size  Location     Type
  9875 ;;  addr            1    4[COMMON] unsigned char 
  9876 ;;  data            1    5[COMMON] unsigned char 
  9877 ;; Return value:  Size  Location     Type
  9878 ;;                  1    wreg      unsigned char 
  9879 ;; Registers used:
  9880 ;;		wreg, status,2, status,0, pclath, cstack
  9881 ;; Tracked objects:
  9882 ;;		On entry : 0/0
  9883 ;;		On exit  : 0/0
  9884 ;;		Unchanged: 0/0
  9885 ;; Data sizes:     COMMON   BANK0   BANK1   BANK3   BANK2
  9886 ;;      Params:         0       0       0       0       0
  9887 ;;      Locals:         2       0       0       0       0
  9888 ;;      Temps:          0       0       0       0       0
  9889 ;;      Totals:         2       0       0       0       0
  9890 ;;Total ram usage:        2 bytes
  9891 ;; Hardware stack levels used: 1
  9892 ;; Hardware stack levels required when called: 4
  9893 ;; This function calls:
  9894 ;;		_i2c_read
  9895 ;;		_i2c_rep_start
  9896 ;;		_i2c_start
  9897 ;;		_i2c_stop
  9898 ;;		_i2c_write
  9899 ;; This function is called by:
  9900 ;;		_init_ds1307
  9901 ;;		_get_time
  9902 ;; This function uses a non-reentrant model
  9903 ;;
  9904                           
  9905     1275                     _read_ds1307:	
  9906                           ;psect for function _read_ds1307
  9907                           
  9908                           
  9909                           ;incstack = 0
  9910                           ; Regs used in _read_ds1307: [wreg+status,2+status,0+pclath+cstack]
  9911                           ;read_ds1307@addr stored from wreg
  9912     1275  00F4               	movwf	read_ds1307@addr
  9913     1276                     l4095:
  9914                           
  9915                           ;ds1307.c: 12:     unsigned char data;;ds1307.c: 14:     i2c_start();
  9916     1276  160A  118A  20BC  160A  118A  	fcall	_i2c_start
  9917                           
  9918                           ;ds1307.c: 15:     i2c_write(0b11010000);
  9919     127B  30D0               	movlw	208
  9920     127C  160A  118A  20D9  160A  118A  	fcall	_i2c_write
  9921                           
  9922                           ;ds1307.c: 16:     i2c_write(addr);
  9923     1281  0874               	movf	read_ds1307@addr,w
  9924     1282  160A  118A  20D9  160A  118A  	fcall	_i2c_write
  9925                           
  9926                           ;ds1307.c: 17:     i2c_rep_start();
  9927     1287  160A  118A  20CE  160A  118A  	fcall	_i2c_rep_start
  9928                           
  9929                           ;ds1307.c: 18:     i2c_write(0b11010001);
  9930     128C  30D1               	movlw	209
  9931     128D  160A  118A  20D9  160A  118A  	fcall	_i2c_write
  9932                           
  9933                           ;ds1307.c: 19:     data = i2c_read(0);
  9934     1292  3000               	movlw	0
  9935     1293  120A  118A  26DE  160A  118A  	fcall	_i2c_read
  9936     1298  00F5               	movwf	read_ds1307@data
  9937                           
  9938                           ;ds1307.c: 20:     i2c_stop();
  9939     1299  160A  118A  20C5  160A  118A  	fcall	_i2c_stop
  9940     129E                     l4097:
  9941                           
  9942                           ;ds1307.c: 22:     return data;
  9943     129E  0875               	movf	read_ds1307@data,w
  9944     129F                     l20:
  9945     129F  0008               	return
  9946     12A0                     __end_of_read_ds1307:
  9947                           
  9948                           	psect	text39
  9949     10D9                     __ptext39:	
  9950 ;; *************** function _i2c_write *****************
  9951 ;; Defined at:
  9952 ;;		line 56 in file "i2c.c"
  9953 ;; Parameters:    Size  Location     Type
  9954 ;;  data            1    wreg     unsigned char 
  9955 ;; Auto vars:     Size  Location     Type
  9956 ;;  data            1    2[COMMON] unsigned char 
  9957 ;; Return value:  Size  Location     Type
  9958 ;;                  2    8[None  ] int 
  9959 ;; Registers used:
  9960 ;;		wreg, status,2, status,0, pclath, cstack
  9961 ;; Tracked objects:
  9962 ;;		On entry : 0/0
  9963 ;;		On exit  : 0/0
  9964 ;;		Unchanged: 0/0
  9965 ;; Data sizes:     COMMON   BANK0   BANK1   BANK3   BANK2
  9966 ;;      Params:         0       0       0       0       0
  9967 ;;      Locals:         1       0       0       0       0
  9968 ;;      Temps:          0       0       0       0       0
  9969 ;;      Totals:         1       0       0       0       0
  9970 ;;Total ram usage:        1 bytes
  9971 ;; Hardware stack levels used: 1
  9972 ;; Hardware stack levels required when called: 2
  9973 ;; This function calls:
  9974 ;;		_i2c_wait_for_idle
  9975 ;; This function is called by:
  9976 ;;		_read_ds1307
  9977 ;;		_write_ds1307
  9978 ;;		_eeprom_read
  9979 ;;		_eeprom_write
  9980 ;; This function uses a non-reentrant model
  9981 ;;
  9982                           
  9983     10D9                     _i2c_write:	
  9984                           ;psect for function _i2c_write
  9985                           
  9986                           
  9987                           ;incstack = 0
  9988                           ; Regs used in _i2c_write: [wreg+status,2+status,0+pclath+cstack]
  9989                           ;i2c_write@data stored from wreg
  9990     10D9  00F2               	movwf	i2c_write@data
  9991     10DA                     l4071:
  9992                           
  9993                           ;i2c.c: 57:     i2c_wait_for_idle();
  9994     10DA  160A  118A  20FA  160A  118A  	fcall	_i2c_wait_for_idle
  9995     10DF                     l4073:
  9996                           
  9997                           ;i2c.c: 58:     SSPBUF = data;
  9998     10DF  0872               	movf	i2c_write@data,w
  9999     10E0  1283               	bcf	3,5	;RP0=0, select bank0
 10000     10E1  1303               	bcf	3,6	;RP1=0, select bank0
 10001     10E2  0093               	movwf	19	;volatile
 10002     10E3                     l4075:
 10003     10E3                     l107:	
 10004                           ;i2c.c: 60:     return !ACKSTAT;;	Return value of _i2c_write is never used
 10005                           
 10006     10E3  0008               	return
 10007     10E4                     __end_of_i2c_write:
 10008                           
 10009                           	psect	text40
 10010     10CE                     __ptext40:	
 10011 ;; *************** function _i2c_rep_start *****************
 10012 ;; Defined at:
 10013 ;;		line 24 in file "i2c.c"
 10014 ;; Parameters:    Size  Location     Type
 10015 ;;		None
 10016 ;; Auto vars:     Size  Location     Type
 10017 ;;		None
 10018 ;; Return value:  Size  Location     Type
 10019 ;;                  1    wreg      void 
 10020 ;; Registers used:
 10021 ;;		wreg, status,2, status,0, pclath, cstack
 10022 ;; Tracked objects:
 10023 ;;		On entry : 0/0
 10024 ;;		On exit  : 0/0
 10025 ;;		Unchanged: 0/0
 10026 ;; Data sizes:     COMMON   BANK0   BANK1   BANK3   BANK2
 10027 ;;      Params:         0       0       0       0       0
 10028 ;;      Locals:         0       0       0       0       0
 10029 ;;      Temps:          0       0       0       0       0
 10030 ;;      Totals:         0       0       0       0       0
 10031 ;;Total ram usage:        0 bytes
 10032 ;; Hardware stack levels used: 1
 10033 ;; Hardware stack levels required when called: 3
 10034 ;; This function calls:
 10035 ;;		_i2c_start
 10036 ;;		_i2c_stop
 10037 ;; This function is called by:
 10038 ;;		_read_ds1307
 10039 ;;		_eeprom_read
 10040 ;; This function uses a non-reentrant model
 10041 ;;
 10042                           
 10043     10CE                     _i2c_rep_start:	
 10044                           ;psect for function _i2c_rep_start
 10045                           
 10046     10CE                     l4079:	
 10047                           ;incstack = 0
 10048                           ; Regs used in _i2c_rep_start: [wreg+status,2+status,0+pclath+cstack]
 10049                           
 10050                           
 10051                           ;i2c.c: 26:     i2c_stop();
 10052     10CE  160A  118A  20C5  160A  118A  	fcall	_i2c_stop
 10053                           
 10054                           ;i2c.c: 27:     i2c_start();
 10055     10D3  160A  118A  20BC  160A  118A  	fcall	_i2c_start
 10056     10D8                     l96:
 10057     10D8  0008               	return
 10058     10D9                     __end_of_i2c_rep_start:
 10059                           
 10060                           	psect	text41
 10061     10C5                     __ptext41:	
 10062 ;; *************** function _i2c_stop *****************
 10063 ;; Defined at:
 10064 ;;		line 31 in file "i2c.c"
 10065 ;; Parameters:    Size  Location     Type
 10066 ;;		None
 10067 ;; Auto vars:     Size  Location     Type
 10068 ;;		None
 10069 ;; Return value:  Size  Location     Type
 10070 ;;                  1    wreg      void 
 10071 ;; Registers used:
 10072 ;;		wreg, status,2, status,0, pclath, cstack
 10073 ;; Tracked objects:
 10074 ;;		On entry : 0/0
 10075 ;;		On exit  : 0/0
 10076 ;;		Unchanged: 0/0
 10077 ;; Data sizes:     COMMON   BANK0   BANK1   BANK3   BANK2
 10078 ;;      Params:         0       0       0       0       0
 10079 ;;      Locals:         0       0       0       0       0
 10080 ;;      Temps:          0       0       0       0       0
 10081 ;;      Totals:         0       0       0       0       0
 10082 ;;Total ram usage:        0 bytes
 10083 ;; Hardware stack levels used: 1
 10084 ;; Hardware stack levels required when called: 2
 10085 ;; This function calls:
 10086 ;;		_i2c_wait_for_idle
 10087 ;; This function is called by:
 10088 ;;		_read_ds1307
 10089 ;;		_write_ds1307
 10090 ;;		_i2c_rep_start
 10091 ;;		_eeprom_read
 10092 ;;		_eeprom_write
 10093 ;; This function uses a non-reentrant model
 10094 ;;
 10095                           
 10096     10C5                     _i2c_stop:	
 10097                           ;psect for function _i2c_stop
 10098                           
 10099     10C5                     l4067:	
 10100                           ;incstack = 0
 10101                           ; Regs used in _i2c_stop: [wreg+status,2+status,0+pclath+cstack]
 10102                           
 10103                           
 10104                           ;i2c.c: 32:     i2c_wait_for_idle();
 10105     10C5  160A  118A  20FA  160A  118A  	fcall	_i2c_wait_for_idle
 10106     10CA                     l4069:
 10107                           
 10108                           ;i2c.c: 33:     PEN = 1;
 10109     10CA  1683               	bsf	3,5	;RP0=1, select bank1
 10110     10CB  1303               	bcf	3,6	;RP1=0, select bank1
 10111     10CC  1511               	bsf	17,2	;volatile
 10112     10CD                     l99:
 10113     10CD  0008               	return
 10114     10CE                     __end_of_i2c_stop:
 10115                           
 10116                           	psect	text42
 10117     10BC                     __ptext42:	
 10118 ;; *************** function _i2c_start *****************
 10119 ;; Defined at:
 10120 ;;		line 19 in file "i2c.c"
 10121 ;; Parameters:    Size  Location     Type
 10122 ;;		None
 10123 ;; Auto vars:     Size  Location     Type
 10124 ;;		None
 10125 ;; Return value:  Size  Location     Type
 10126 ;;                  1    wreg      void 
 10127 ;; Registers used:
 10128 ;;		wreg, status,2, status,0, pclath, cstack
 10129 ;; Tracked objects:
 10130 ;;		On entry : 0/0
 10131 ;;		On exit  : 0/0
 10132 ;;		Unchanged: 0/0
 10133 ;; Data sizes:     COMMON   BANK0   BANK1   BANK3   BANK2
 10134 ;;      Params:         0       0       0       0       0
 10135 ;;      Locals:         0       0       0       0       0
 10136 ;;      Temps:          0       0       0       0       0
 10137 ;;      Totals:         0       0       0       0       0
 10138 ;;Total ram usage:        0 bytes
 10139 ;; Hardware stack levels used: 1
 10140 ;; Hardware stack levels required when called: 2
 10141 ;; This function calls:
 10142 ;;		_i2c_wait_for_idle
 10143 ;; This function is called by:
 10144 ;;		_read_ds1307
 10145 ;;		_write_ds1307
 10146 ;;		_i2c_rep_start
 10147 ;;		_eeprom_read
 10148 ;;		_eeprom_write
 10149 ;; This function uses a non-reentrant model
 10150 ;;
 10151                           
 10152     10BC                     _i2c_start:	
 10153                           ;psect for function _i2c_start
 10154                           
 10155     10BC                     l4063:	
 10156                           ;incstack = 0
 10157                           ; Regs used in _i2c_start: [wreg+status,2+status,0+pclath+cstack]
 10158                           
 10159                           
 10160                           ;i2c.c: 20:     i2c_wait_for_idle();
 10161     10BC  160A  118A  20FA  160A  118A  	fcall	_i2c_wait_for_idle
 10162     10C1                     l4065:
 10163                           
 10164                           ;i2c.c: 21:     SEN = 1;
 10165     10C1  1683               	bsf	3,5	;RP0=1, select bank1
 10166     10C2  1303               	bcf	3,6	;RP1=0, select bank1
 10167     10C3  1411               	bsf	17,0	;volatile
 10168     10C4                     l93:
 10169     10C4  0008               	return
 10170     10C5                     __end_of_i2c_start:
 10171                           
 10172                           	psect	text43
 10173     06DE                     __ptext43:	
 10174 ;; *************** function _i2c_read *****************
 10175 ;; Defined at:
 10176 ;;		line 36 in file "i2c.c"
 10177 ;; Parameters:    Size  Location     Type
 10178 ;;  ack             1    wreg     unsigned char 
 10179 ;; Auto vars:     Size  Location     Type
 10180 ;;  ack             1    2[COMMON] unsigned char 
 10181 ;;  data            1    3[COMMON] unsigned char 
 10182 ;; Return value:  Size  Location     Type
 10183 ;;                  1    wreg      unsigned char 
 10184 ;; Registers used:
 10185 ;;		wreg, status,2, status,0, pclath, cstack
 10186 ;; Tracked objects:
 10187 ;;		On entry : 0/0
 10188 ;;		On exit  : 0/0
 10189 ;;		Unchanged: 0/0
 10190 ;; Data sizes:     COMMON   BANK0   BANK1   BANK3   BANK2
 10191 ;;      Params:         0       0       0       0       0
 10192 ;;      Locals:         2       0       0       0       0
 10193 ;;      Temps:          0       0       0       0       0
 10194 ;;      Totals:         2       0       0       0       0
 10195 ;;Total ram usage:        2 bytes
 10196 ;; Hardware stack levels used: 1
 10197 ;; Hardware stack levels required when called: 2
 10198 ;; This function calls:
 10199 ;;		_i2c_wait_for_idle
 10200 ;; This function is called by:
 10201 ;;		_read_ds1307
 10202 ;;		_eeprom_read
 10203 ;; This function uses a non-reentrant model
 10204 ;;
 10205                           
 10206     06DE                     _i2c_read:	
 10207                           ;psect for function _i2c_read
 10208                           
 10209                           
 10210                           ;incstack = 0
 10211                           ; Regs used in _i2c_read: [wreg+status,2+status,0+pclath+cstack]
 10212                           ;i2c_read@ack stored from wreg
 10213     06DE  00F2               	movwf	i2c_read@ack
 10214     06DF                     l4081:
 10215                           
 10216                           ;i2c.c: 37:     unsigned char data;;i2c.c: 39:     i2c_wait_for_idle();
 10217     06DF  160A  118A  20FA  120A  118A  	fcall	_i2c_wait_for_idle
 10218     06E4                     l4083:
 10219                           
 10220                           ;i2c.c: 40:     RCEN = 1;
 10221     06E4  1683               	bsf	3,5	;RP0=1, select bank1
 10222     06E5  1303               	bcf	3,6	;RP1=0, select bank1
 10223     06E6  1591               	bsf	17,3	;volatile
 10224                           
 10225                           ;i2c.c: 42:     i2c_wait_for_idle();
 10226     06E7  160A  118A  20FA  120A  118A  	fcall	_i2c_wait_for_idle
 10227     06EC                     l4085:
 10228                           
 10229                           ;i2c.c: 43:     data = SSPBUF;
 10230     06EC  1283               	bcf	3,5	;RP0=0, select bank0
 10231     06ED  1303               	bcf	3,6	;RP1=0, select bank0
 10232     06EE  0813               	movf	19,w	;volatile
 10233     06EF  00F3               	movwf	i2c_read@data
 10234     06F0                     l4087:
 10235                           
 10236                           ;i2c.c: 45:     if (ack == 1) {
 10237     06F0  0372               	decf	i2c_read@ack,w
 10238     06F1  1D03               	btfss	3,2
 10239     06F2  2EF4               	goto	u3461
 10240     06F3  2EF5               	goto	u3460
 10241     06F4                     u3461:
 10242     06F4  2EF9               	goto	l102
 10243     06F5                     u3460:
 10244     06F5                     l4089:
 10245                           
 10246                           ;i2c.c: 46:         ACKDT = 1;
 10247     06F5  1683               	bsf	3,5	;RP0=1, select bank1
 10248     06F6  1303               	bcf	3,6	;RP1=0, select bank1
 10249     06F7  1691               	bsf	17,5	;volatile
 10250                           
 10251                           ;i2c.c: 47:     } else {
 10252     06F8  2EFC               	goto	l103
 10253     06F9                     l102:
 10254                           
 10255                           ;i2c.c: 48:         ACKDT = 0;
 10256     06F9  1683               	bsf	3,5	;RP0=1, select bank1
 10257     06FA  1303               	bcf	3,6	;RP1=0, select bank1
 10258     06FB  1291               	bcf	17,5	;volatile
 10259     06FC                     l103:	
 10260                           ;i2c.c: 49:     }
 10261                           
 10262                           
 10263                           ;i2c.c: 51:     ACKEN = 1;
 10264     06FC  1611               	bsf	17,4	;volatile
 10265     06FD                     l4091:
 10266                           
 10267                           ;i2c.c: 53:     return data;
 10268     06FD  0873               	movf	i2c_read@data,w
 10269     06FE                     l104:
 10270     06FE  0008               	return
 10271     06FF                     __end_of_i2c_read:
 10272                           
 10273                           	psect	text44
 10274     10FA                     __ptext44:	
 10275 ;; *************** function _i2c_wait_for_idle *****************
 10276 ;; Defined at:
 10277 ;;		line 14 in file "i2c.c"
 10278 ;; Parameters:    Size  Location     Type
 10279 ;;		None
 10280 ;; Auto vars:     Size  Location     Type
 10281 ;;		None
 10282 ;; Return value:  Size  Location     Type
 10283 ;;                  1    wreg      void 
 10284 ;; Registers used:
 10285 ;;		wreg, status,2
 10286 ;; Tracked objects:
 10287 ;;		On entry : 0/0
 10288 ;;		On exit  : 0/0
 10289 ;;		Unchanged: 0/0
 10290 ;; Data sizes:     COMMON   BANK0   BANK1   BANK3   BANK2
 10291 ;;      Params:         0       0       0       0       0
 10292 ;;      Locals:         0       0       0       0       0
 10293 ;;      Temps:          0       0       0       0       0
 10294 ;;      Totals:         0       0       0       0       0
 10295 ;;Total ram usage:        0 bytes
 10296 ;; Hardware stack levels used: 1
 10297 ;; Hardware stack levels required when called: 1
 10298 ;; This function calls:
 10299 ;;		Nothing
 10300 ;; This function is called by:
 10301 ;;		_i2c_start
 10302 ;;		_i2c_stop
 10303 ;;		_i2c_read
 10304 ;;		_i2c_write
 10305 ;; This function uses a non-reentrant model
 10306 ;;
 10307                           
 10308     10FA                     _i2c_wait_for_idle:	
 10309                           ;psect for function _i2c_wait_for_idle
 10310                           
 10311     10FA                     l4059:	
 10312                           ;incstack = 0
 10313                           ; Regs used in _i2c_wait_for_idle: [wreg+status,2]
 10314                           
 10315     10FA                     l87:	
 10316                           ;i2c.c: 16:     while (R_nW || (SSPCON2 & 0x1F));
 10317                           
 10318     10FA  1683               	bsf	3,5	;RP0=1, select bank1
 10319     10FB  1303               	bcf	3,6	;RP1=0, select bank1
 10320     10FC  1914               	btfsc	20,2	;volatile
 10321     10FD  28FF               	goto	u3441
 10322     10FE  2900               	goto	u3440
 10323     10FF                     u3441:
 10324     10FF  28FA               	goto	l87
 10325     1100                     u3440:
 10326     1100                     l4061:
 10327     1100  0811               	movf	17,w	;volatile
 10328     1101  391F               	andlw	31
 10329     1102  1D03               	btfss	3,2
 10330     1103  2905               	goto	u3451
 10331     1104  2906               	goto	u3450
 10332     1105                     u3451:
 10333     1105  28FA               	goto	l87
 10334     1106                     u3450:
 10335     1106                     l90:
 10336     1106  0008               	return
 10337     1107                     __end_of_i2c_wait_for_idle:
 10338                           
 10339                           	psect	text45
 10340     115D                     __ptext45:	
 10341 ;; *************** function _clcd_putch *****************
 10342 ;; Defined at:
 10343 ;;		line 52 in file "clcd.c"
 10344 ;; Parameters:    Size  Location     Type
 10345 ;;  data            1    wreg     const unsigned char 
 10346 ;;  addr            1    0[BANK0 ] unsigned char 
 10347 ;; Auto vars:     Size  Location     Type
 10348 ;;  data            1    1[BANK0 ] const unsigned char 
 10349 ;; Return value:  Size  Location     Type
 10350 ;;                  1    wreg      void 
 10351 ;; Registers used:
 10352 ;;		wreg, status,2, status,0, pclath, cstack
 10353 ;; Tracked objects:
 10354 ;;		On entry : 0/0
 10355 ;;		On exit  : 0/0
 10356 ;;		Unchanged: 0/0
 10357 ;; Data sizes:     COMMON   BANK0   BANK1   BANK3   BANK2
 10358 ;;      Params:         0       1       0       0       0
 10359 ;;      Locals:         0       1       0       0       0
 10360 ;;      Temps:          0       0       0       0       0
 10361 ;;      Totals:         0       2       0       0       0
 10362 ;;Total ram usage:        2 bytes
 10363 ;; Hardware stack levels used: 1
 10364 ;; Hardware stack levels required when called: 2
 10365 ;; This function calls:
 10366 ;;		_clcd_write
 10367 ;; This function is called by:
 10368 ;;		_display_time
 10369 ;;		_display_dashboard
 10370 ;;		_login
 10371 ;;		_display_menu
 10372 ;;		_view_records
 10373 ;;		_set_time
 10374 ;;		_password_change
 10375 ;; This function uses a non-reentrant model
 10376 ;;
 10377                           
 10378     115D                     _clcd_putch:	
 10379                           ;psect for function _clcd_putch
 10380                           
 10381                           
 10382                           ;incstack = 0
 10383                           ; Regs used in _clcd_putch: [wreg+status,2+status,0+pclath+cstack]
 10384                           ;clcd_putch@data stored from wreg
 10385     115D  1283               	bcf	3,5	;RP0=0, select bank0
 10386     115E  1303               	bcf	3,6	;RP1=0, select bank0
 10387     115F  00CA               	movwf	clcd_putch@data
 10388     1160                     l4149:
 10389                           
 10390                           ;clcd.c: 53:     clcd_write(addr, 0);
 10391     1160  01F2               	clrf	clcd_write@mode
 10392     1161  0849               	movf	clcd_putch@addr,w
 10393     1162  160A  118A  23BB  160A  118A  	fcall	_clcd_write
 10394                           
 10395                           ;clcd.c: 54:     clcd_write(data, 1);
 10396     1167  01F2               	clrf	clcd_write@mode
 10397     1168  0AF2               	incf	clcd_write@mode,f
 10398     1169  1283               	bcf	3,5	;RP0=0, select bank0
 10399     116A  1303               	bcf	3,6	;RP1=0, select bank0
 10400     116B  084A               	movf	clcd_putch@data,w
 10401     116C  160A  118A  23BB  160A  118A  	fcall	_clcd_write
 10402     1171                     l49:
 10403     1171  0008               	return
 10404     1172                     __end_of_clcd_putch:
 10405                           
 10406                           	psect	text46
 10407     16DD                     __ptext46:	
 10408 ;; *************** function ___awmod *****************
 10409 ;; Defined at:
 10410 ;;		line 5 in file "C:\Program Files\Microchip\xc8\v2.46\pic\sources\c99\common\awmod.c"
 10411 ;; Parameters:    Size  Location     Type
 10412 ;;  divisor         2    2[COMMON] int 
 10413 ;;  dividend        2    4[COMMON] int 
 10414 ;; Auto vars:     Size  Location     Type
 10415 ;;  sign            1    7[COMMON] unsigned char 
 10416 ;;  counter         1    6[COMMON] unsigned char 
 10417 ;; Return value:  Size  Location     Type
 10418 ;;                  2    2[COMMON] int 
 10419 ;; Registers used:
 10420 ;;		wreg, status,2, status,0, btemp+1
 10421 ;; Tracked objects:
 10422 ;;		On entry : 0/0
 10423 ;;		On exit  : 0/0
 10424 ;;		Unchanged: 0/0
 10425 ;; Data sizes:     COMMON   BANK0   BANK1   BANK3   BANK2
 10426 ;;      Params:         4       0       0       0       0
 10427 ;;      Locals:         2       0       0       0       0
 10428 ;;      Temps:          0       0       0       0       0
 10429 ;;      Totals:         6       0       0       0       0
 10430 ;;Total ram usage:        6 bytes
 10431 ;; Hardware stack levels used: 1
 10432 ;; Hardware stack levels required when called: 1
 10433 ;; This function calls:
 10434 ;;		Nothing
 10435 ;; This function is called by:
 10436 ;;		_display_dashboard
 10437 ;;		_record_event
 10438 ;;		_login
 10439 ;; This function uses a non-reentrant model
 10440 ;;
 10441                           
 10442     16DD                     ___awmod:	
 10443                           ;psect for function ___awmod
 10444                           
 10445     16DD                     l4395:	
 10446                           ;incstack = 0
 10447                           ; Regs used in ___awmod: [wreg+status,2+status,0+btemp+1]
 10448                           
 10449     16DD  01F7               	clrf	___awmod@sign
 10450     16DE                     l4397:
 10451     16DE  1FF5               	btfss	___awmod@dividend+1,7
 10452     16DF  2EE1               	goto	u3921
 10453     16E0  2EE2               	goto	u3920
 10454     16E1                     u3921:
 10455     16E1  2EE9               	goto	l4403
 10456     16E2                     u3920:
 10457     16E2                     l4399:
 10458     16E2  09F4               	comf	___awmod@dividend,f
 10459     16E3  09F5               	comf	___awmod@dividend+1,f
 10460     16E4  0AF4               	incf	___awmod@dividend,f
 10461     16E5  1903               	skipnz
 10462     16E6  0AF5               	incf	___awmod@dividend+1,f
 10463     16E7                     l4401:
 10464     16E7  01F7               	clrf	___awmod@sign
 10465     16E8  0AF7               	incf	___awmod@sign,f
 10466     16E9                     l4403:
 10467     16E9  1FF3               	btfss	___awmod@divisor+1,7
 10468     16EA  2EEC               	goto	u3931
 10469     16EB  2EED               	goto	u3930
 10470     16EC                     u3931:
 10471     16EC  2EF2               	goto	l4407
 10472     16ED                     u3930:
 10473     16ED                     l4405:
 10474     16ED  09F2               	comf	___awmod@divisor,f
 10475     16EE  09F3               	comf	___awmod@divisor+1,f
 10476     16EF  0AF2               	incf	___awmod@divisor,f
 10477     16F0  1903               	skipnz
 10478     16F1  0AF3               	incf	___awmod@divisor+1,f
 10479     16F2                     l4407:
 10480     16F2  0872               	movf	___awmod@divisor,w
 10481     16F3  0473               	iorwf	___awmod@divisor+1,w
 10482     16F4  1903               	btfsc	3,2
 10483     16F5  2EF7               	goto	u3941
 10484     16F6  2EF8               	goto	u3940
 10485     16F7                     u3941:
 10486     16F7  2F27               	goto	l4425
 10487     16F8                     u3940:
 10488     16F8                     l4409:
 10489     16F8  01F6               	clrf	___awmod@counter
 10490     16F9  0AF6               	incf	___awmod@counter,f
 10491     16FA  2F06               	goto	l4415
 10492     16FB                     l4411:
 10493     16FB  3001               	movlw	1
 10494     16FC                     u3955:
 10495     16FC  1003               	clrc
 10496     16FD  0DF2               	rlf	___awmod@divisor,f
 10497     16FE  0DF3               	rlf	___awmod@divisor+1,f
 10498     16FF  3EFF               	addlw	-1
 10499     1700  1D03               	skipz
 10500     1701  2EFC               	goto	u3955
 10501     1702                     l4413:
 10502     1702  3001               	movlw	1
 10503     1703  00FF               	movwf	btemp+1
 10504     1704  087F               	movf	btemp+1,w
 10505     1705  07F6               	addwf	___awmod@counter,f
 10506     1706                     l4415:
 10507     1706  1FF3               	btfss	___awmod@divisor+1,7
 10508     1707  2F09               	goto	u3961
 10509     1708  2F0A               	goto	u3960
 10510     1709                     u3961:
 10511     1709  2EFB               	goto	l4411
 10512     170A                     u3960:
 10513     170A                     l4417:
 10514     170A  0873               	movf	___awmod@divisor+1,w
 10515     170B  0275               	subwf	___awmod@dividend+1,w
 10516     170C  1D03               	skipz
 10517     170D  2F10               	goto	u3975
 10518     170E  0872               	movf	___awmod@divisor,w
 10519     170F  0274               	subwf	___awmod@dividend,w
 10520     1710                     u3975:
 10521     1710  1C03               	skipc
 10522     1711  2F13               	goto	u3971
 10523     1712  2F14               	goto	u3970
 10524     1713                     u3971:
 10525     1713  2F1A               	goto	l4421
 10526     1714                     u3970:
 10527     1714                     l4419:
 10528     1714  0872               	movf	___awmod@divisor,w
 10529     1715  02F4               	subwf	___awmod@dividend,f
 10530     1716  0873               	movf	___awmod@divisor+1,w
 10531     1717  1C03               	skipc
 10532     1718  03F5               	decf	___awmod@dividend+1,f
 10533     1719  02F5               	subwf	___awmod@dividend+1,f
 10534     171A                     l4421:
 10535     171A  3001               	movlw	1
 10536     171B                     u3985:
 10537     171B  1003               	clrc
 10538     171C  0CF3               	rrf	___awmod@divisor+1,f
 10539     171D  0CF2               	rrf	___awmod@divisor,f
 10540     171E  3EFF               	addlw	-1
 10541     171F  1D03               	skipz
 10542     1720  2F1B               	goto	u3985
 10543     1721                     l4423:
 10544     1721  3001               	movlw	1
 10545     1722  02F6               	subwf	___awmod@counter,f
 10546     1723  1D03               	btfss	3,2
 10547     1724  2F26               	goto	u3991
 10548     1725  2F27               	goto	u3990
 10549     1726                     u3991:
 10550     1726  2F0A               	goto	l4417
 10551     1727                     u3990:
 10552     1727                     l4425:
 10553     1727  0877               	movf	___awmod@sign,w
 10554     1728  1903               	btfsc	3,2
 10555     1729  2F2B               	goto	u4001
 10556     172A  2F2C               	goto	u4000
 10557     172B                     u4001:
 10558     172B  2F31               	goto	l4429
 10559     172C                     u4000:
 10560     172C                     l4427:
 10561     172C  09F4               	comf	___awmod@dividend,f
 10562     172D  09F5               	comf	___awmod@dividend+1,f
 10563     172E  0AF4               	incf	___awmod@dividend,f
 10564     172F  1903               	skipnz
 10565     1730  0AF5               	incf	___awmod@dividend+1,f
 10566     1731                     l4429:
 10567     1731  0875               	movf	___awmod@dividend+1,w
 10568     1732  00F3               	movwf	?___awmod+1
 10569     1733  0874               	movf	___awmod@dividend,w
 10570     1734  00F2               	movwf	?___awmod
 10571     1735                     l834:
 10572     1735  0008               	return
 10573     1736                     __end_of___awmod:
 10574                           
 10575                           	psect	text47
 10576     1799                     __ptext47:	
 10577 ;; *************** function ___awdiv *****************
 10578 ;; Defined at:
 10579 ;;		line 5 in file "C:\Program Files\Microchip\xc8\v2.46\pic\sources\c99\common\awdiv.c"
 10580 ;; Parameters:    Size  Location     Type
 10581 ;;  divisor         2    2[COMMON] int 
 10582 ;;  dividend        2    4[COMMON] int 
 10583 ;; Auto vars:     Size  Location     Type
 10584 ;;  quotient        2    8[COMMON] int 
 10585 ;;  sign            1    7[COMMON] unsigned char 
 10586 ;;  counter         1    6[COMMON] unsigned char 
 10587 ;; Return value:  Size  Location     Type
 10588 ;;                  2    2[COMMON] int 
 10589 ;; Registers used:
 10590 ;;		wreg, status,2, status,0, btemp+1
 10591 ;; Tracked objects:
 10592 ;;		On entry : 0/0
 10593 ;;		On exit  : 0/0
 10594 ;;		Unchanged: 0/0
 10595 ;; Data sizes:     COMMON   BANK0   BANK1   BANK3   BANK2
 10596 ;;      Params:         4       0       0       0       0
 10597 ;;      Locals:         4       0       0       0       0
 10598 ;;      Temps:          0       0       0       0       0
 10599 ;;      Totals:         8       0       0       0       0
 10600 ;;Total ram usage:        8 bytes
 10601 ;; Hardware stack levels used: 1
 10602 ;; Hardware stack levels required when called: 1
 10603 ;; This function calls:
 10604 ;;		Nothing
 10605 ;; This function is called by:
 10606 ;;		_display_dashboard
 10607 ;;		_record_event
 10608 ;;		_login
 10609 ;;		_set_time
 10610 ;; This function uses a non-reentrant model
 10611 ;;
 10612                           
 10613     1799                     ___awdiv:	
 10614                           ;psect for function ___awdiv
 10615                           
 10616     1799                     l4351:	
 10617                           ;incstack = 0
 10618                           ; Regs used in ___awdiv: [wreg+status,2+status,0+btemp+1]
 10619                           
 10620     1799  01F7               	clrf	___awdiv@sign
 10621     179A                     l4353:
 10622     179A  1FF3               	btfss	___awdiv@divisor+1,7
 10623     179B  2F9D               	goto	u3821
 10624     179C  2F9E               	goto	u3820
 10625     179D                     u3821:
 10626     179D  2FA5               	goto	l4359
 10627     179E                     u3820:
 10628     179E                     l4355:
 10629     179E  09F2               	comf	___awdiv@divisor,f
 10630     179F  09F3               	comf	___awdiv@divisor+1,f
 10631     17A0  0AF2               	incf	___awdiv@divisor,f
 10632     17A1  1903               	skipnz
 10633     17A2  0AF3               	incf	___awdiv@divisor+1,f
 10634     17A3                     l4357:
 10635     17A3  01F7               	clrf	___awdiv@sign
 10636     17A4  0AF7               	incf	___awdiv@sign,f
 10637     17A5                     l4359:
 10638     17A5  1FF5               	btfss	___awdiv@dividend+1,7
 10639     17A6  2FA8               	goto	u3831
 10640     17A7  2FA9               	goto	u3830
 10641     17A8                     u3831:
 10642     17A8  2FB2               	goto	l4365
 10643     17A9                     u3830:
 10644     17A9                     l4361:
 10645     17A9  09F4               	comf	___awdiv@dividend,f
 10646     17AA  09F5               	comf	___awdiv@dividend+1,f
 10647     17AB  0AF4               	incf	___awdiv@dividend,f
 10648     17AC  1903               	skipnz
 10649     17AD  0AF5               	incf	___awdiv@dividend+1,f
 10650     17AE                     l4363:
 10651     17AE  3001               	movlw	1
 10652     17AF  00FF               	movwf	btemp+1
 10653     17B0  087F               	movf	btemp+1,w
 10654     17B1  06F7               	xorwf	___awdiv@sign,f
 10655     17B2                     l4365:
 10656     17B2  01F8               	clrf	___awdiv@quotient
 10657     17B3  01F9               	clrf	___awdiv@quotient+1
 10658     17B4                     l4367:
 10659     17B4  0872               	movf	___awdiv@divisor,w
 10660     17B5  0473               	iorwf	___awdiv@divisor+1,w
 10661     17B6  1903               	btfsc	3,2
 10662     17B7  2FB9               	goto	u3841
 10663     17B8  2FBA               	goto	u3840
 10664     17B9                     u3841:
 10665     17B9  2FF1               	goto	l4387
 10666     17BA                     u3840:
 10667     17BA                     l4369:
 10668     17BA  01F6               	clrf	___awdiv@counter
 10669     17BB  0AF6               	incf	___awdiv@counter,f
 10670     17BC  2FC8               	goto	l4375
 10671     17BD                     l4371:
 10672     17BD  3001               	movlw	1
 10673     17BE                     u3855:
 10674     17BE  1003               	clrc
 10675     17BF  0DF2               	rlf	___awdiv@divisor,f
 10676     17C0  0DF3               	rlf	___awdiv@divisor+1,f
 10677     17C1  3EFF               	addlw	-1
 10678     17C2  1D03               	skipz
 10679     17C3  2FBE               	goto	u3855
 10680     17C4                     l4373:
 10681     17C4  3001               	movlw	1
 10682     17C5  00FF               	movwf	btemp+1
 10683     17C6  087F               	movf	btemp+1,w
 10684     17C7  07F6               	addwf	___awdiv@counter,f
 10685     17C8                     l4375:
 10686     17C8  1FF3               	btfss	___awdiv@divisor+1,7
 10687     17C9  2FCB               	goto	u3861
 10688     17CA  2FCC               	goto	u3860
 10689     17CB                     u3861:
 10690     17CB  2FBD               	goto	l4371
 10691     17CC                     u3860:
 10692     17CC                     l4377:
 10693     17CC  3001               	movlw	1
 10694     17CD                     u3875:
 10695     17CD  1003               	clrc
 10696     17CE  0DF8               	rlf	___awdiv@quotient,f
 10697     17CF  0DF9               	rlf	___awdiv@quotient+1,f
 10698     17D0  3EFF               	addlw	-1
 10699     17D1  1D03               	skipz
 10700     17D2  2FCD               	goto	u3875
 10701     17D3  0873               	movf	___awdiv@divisor+1,w
 10702     17D4  0275               	subwf	___awdiv@dividend+1,w
 10703     17D5  1D03               	skipz
 10704     17D6  2FD9               	goto	u3885
 10705     17D7  0872               	movf	___awdiv@divisor,w
 10706     17D8  0274               	subwf	___awdiv@dividend,w
 10707     17D9                     u3885:
 10708     17D9  1C03               	skipc
 10709     17DA  2FDC               	goto	u3881
 10710     17DB  2FDD               	goto	u3880
 10711     17DC                     u3881:
 10712     17DC  2FE4               	goto	l4383
 10713     17DD                     u3880:
 10714     17DD                     l4379:
 10715     17DD  0872               	movf	___awdiv@divisor,w
 10716     17DE  02F4               	subwf	___awdiv@dividend,f
 10717     17DF  0873               	movf	___awdiv@divisor+1,w
 10718     17E0  1C03               	skipc
 10719     17E1  03F5               	decf	___awdiv@dividend+1,f
 10720     17E2  02F5               	subwf	___awdiv@dividend+1,f
 10721     17E3                     l4381:
 10722     17E3  1478               	bsf	___awdiv@quotient,0
 10723     17E4                     l4383:
 10724     17E4  3001               	movlw	1
 10725     17E5                     u3895:
 10726     17E5  1003               	clrc
 10727     17E6  0CF3               	rrf	___awdiv@divisor+1,f
 10728     17E7  0CF2               	rrf	___awdiv@divisor,f
 10729     17E8  3EFF               	addlw	-1
 10730     17E9  1D03               	skipz
 10731     17EA  2FE5               	goto	u3895
 10732     17EB                     l4385:
 10733     17EB  3001               	movlw	1
 10734     17EC  02F6               	subwf	___awdiv@counter,f
 10735     17ED  1D03               	btfss	3,2
 10736     17EE  2FF0               	goto	u3901
 10737     17EF  2FF1               	goto	u3900
 10738     17F0                     u3901:
 10739     17F0  2FCC               	goto	l4377
 10740     17F1                     u3900:
 10741     17F1                     l4387:
 10742     17F1  0877               	movf	___awdiv@sign,w
 10743     17F2  1903               	btfsc	3,2
 10744     17F3  2FF5               	goto	u3911
 10745     17F4  2FF6               	goto	u3910
 10746     17F5                     u3911:
 10747     17F5  2FFB               	goto	l4391
 10748     17F6                     u3910:
 10749     17F6                     l4389:
 10750     17F6  09F8               	comf	___awdiv@quotient,f
 10751     17F7  09F9               	comf	___awdiv@quotient+1,f
 10752     17F8  0AF8               	incf	___awdiv@quotient,f
 10753     17F9  1903               	skipnz
 10754     17FA  0AF9               	incf	___awdiv@quotient+1,f
 10755     17FB                     l4391:
 10756     17FB  0879               	movf	___awdiv@quotient+1,w
 10757     17FC  00F3               	movwf	?___awdiv+1
 10758     17FD  0878               	movf	___awdiv@quotient,w
 10759     17FE  00F2               	movwf	?___awdiv
 10760     17FF                     l821:
 10761     17FF  0008               	return
 10762     1800                     __end_of___awdiv:
 10763                           
 10764                           	psect	text48
 10765     124A                     __ptext48:	
 10766 ;; *************** function _clear_records *****************
 10767 ;; Defined at:
 10768 ;;		line 304 in file "function_definitions.c"
 10769 ;; Parameters:    Size  Location     Type
 10770 ;;  reset_flag      1    wreg     unsigned char 
 10771 ;; Auto vars:     Size  Location     Type
 10772 ;;  reset_flag      1    9[COMMON] unsigned char 
 10773 ;; Return value:  Size  Location     Type
 10774 ;;                  1    wreg      unsigned char 
 10775 ;; Registers used:
 10776 ;;		wreg, fsr0l, fsr0h, status,2, status,0, btemp+1, pclath, cstack
 10777 ;; Tracked objects:
 10778 ;;		On entry : 0/0
 10779 ;;		On exit  : 0/0
 10780 ;;		Unchanged: 0/0
 10781 ;; Data sizes:     COMMON   BANK0   BANK1   BANK3   BANK2
 10782 ;;      Params:         0       0       0       0       0
 10783 ;;      Locals:         1       0       0       0       0
 10784 ;;      Temps:          0       0       0       0       0
 10785 ;;      Totals:         1       0       0       0       0
 10786 ;;Total ram usage:        1 bytes
 10787 ;; Hardware stack levels used: 1
 10788 ;; Hardware stack levels required when called: 3
 10789 ;; This function calls:
 10790 ;;		_clcd_print
 10791 ;; This function is called by:
 10792 ;;		_main
 10793 ;; This function uses a non-reentrant model
 10794 ;;
 10795                           
 10796     124A                     _clear_records:	
 10797                           ;psect for function _clear_records
 10798                           
 10799                           
 10800                           ;incstack = 0
 10801                           ; Regs used in _clear_records: [wreg-fsr0h+status,2+status,0+btemp+1+pclath+cstack]
 10802                           ;clear_records@reset_flag stored from wreg
 10803     124A  00F9               	movwf	clear_records@reset_flag
 10804     124B                     l4857:
 10805                           
 10806                           ;function_definitions.c: 306:     if (reset_flag == 0x44) {
 10807     124B  3044               	movlw	68
 10808     124C  0679               	xorwf	clear_records@reset_flag,w
 10809     124D  1D03               	btfss	3,2
 10810     124E  2A50               	goto	u4591
 10811     124F  2A51               	goto	u4590
 10812     1250                     u4591:
 10813     1250  2A73               	goto	l4867
 10814     1251                     u4590:
 10815     1251                     l4859:
 10816                           
 10817                           ;function_definitions.c: 307:         pos = -1;
 10818     1251  30FF               	movlw	255
 10819     1252  1283               	bcf	3,5	;RP0=0, select bank0
 10820     1253  1303               	bcf	3,6	;RP1=0, select bank0
 10821     1254  00E4               	movwf	_pos
 10822     1255  30FF               	movlw	255
 10823     1256  00E5               	movwf	_pos+1
 10824                           
 10825                           ;function_definitions.c: 308:         record_count = -1;
 10826     1257  30FF               	movlw	255
 10827     1258  00E2               	movwf	_record_count
 10828     1259  30FF               	movlw	255
 10829     125A  00E3               	movwf	_record_count+1
 10830     125B                     l4861:
 10831                           
 10832                           ;function_definitions.c: 311:         clcd_print("Logs cleared", (0x80 + 2));
 10833     125B  3031               	movlw	low (STR_33| (0+32768))
 10834     125C  00F6               	movwf	clcd_print@str
 10835     125D  3088               	movlw	high (STR_33| (0+32768))
 10836     125E  00F7               	movwf	clcd_print@str+1
 10837     125F  3082               	movlw	130
 10838     1260  00F8               	movwf	clcd_print@addr
 10839     1261  160A  118A  22F8  160A  118A  	fcall	_clcd_print
 10840     1266                     l4863:
 10841                           
 10842                           ;function_definitions.c: 312:         clcd_print("successfully", (0xC0 + 2));
 10843     1266  3058               	movlw	low (STR_34| (0+32768))
 10844     1267  00F6               	movwf	clcd_print@str
 10845     1268  3088               	movlw	high (STR_34| (0+32768))
 10846     1269  00F7               	movwf	clcd_print@str+1
 10847     126A  30C2               	movlw	194
 10848     126B  00F8               	movwf	clcd_print@addr
 10849     126C  160A  118A  22F8  160A  118A  	fcall	_clcd_print
 10850                           
 10851                           ;function_definitions.c: 313:         return 0x11;
 10852     1271  3011               	movlw	17
 10853     1272  2A74               	goto	l408
 10854     1273                     l4867:
 10855                           
 10856                           ;function_definitions.c: 315:     return 0x22;
 10857     1273  3022               	movlw	34
 10858     1274                     l408:
 10859     1274  0008               	return
 10860     1275                     __end_of_clear_records:
 10861                           
 10862                           	psect	text49
 10863     12F8                     __ptext49:	
 10864 ;; *************** function _clcd_print *****************
 10865 ;; Defined at:
 10866 ;;		line 57 in file "clcd.c"
 10867 ;; Parameters:    Size  Location     Type
 10868 ;;  str             2    6[COMMON] PTR const unsigned char 
 10869 ;;		 -> STR_51(7), STR_50(17), STR_49(13), STR_48(17), 
 10870 ;;		 -> STR_47(17), STR_46(3), STR_45(3), STR_44(3), 
 10871 ;;		 -> STR_43(13), STR_42(13), STR_41(16), STR_34(13), 
 10872 ;;		 -> STR_33(13), STR_32(17), STR_31(15), STR_30(14), 
 10873 ;;		 -> STR_29(15), STR_28(4), STR_27(12), STR_26(16), 
 10874 ;;		 -> STR_25(14), STR_24(15), STR_23(14), STR_22(9), 
 10875 ;;		 -> STR_21(13), STR_20(10), STR_19(9), STR_16(15), 
 10876 ;;		 -> STR_14(16), STR_12(17), STR_10(15), main@event(3), 
 10877 ;;  addr            1    8[COMMON] unsigned char 
 10878 ;; Auto vars:     Size  Location     Type
 10879 ;;		None
 10880 ;; Return value:  Size  Location     Type
 10881 ;;                  1    wreg      void 
 10882 ;; Registers used:
 10883 ;;		wreg, fsr0l, fsr0h, status,2, status,0, btemp+1, pclath, cstack
 10884 ;; Tracked objects:
 10885 ;;		On entry : 0/0
 10886 ;;		On exit  : 0/0
 10887 ;;		Unchanged: 0/0
 10888 ;; Data sizes:     COMMON   BANK0   BANK1   BANK3   BANK2
 10889 ;;      Params:         3       0       0       0       0
 10890 ;;      Locals:         0       0       0       0       0
 10891 ;;      Temps:          0       0       0       0       0
 10892 ;;      Totals:         3       0       0       0       0
 10893 ;;Total ram usage:        3 bytes
 10894 ;; Hardware stack levels used: 1
 10895 ;; Hardware stack levels required when called: 2
 10896 ;; This function calls:
 10897 ;;		_clcd_write
 10898 ;; This function is called by:
 10899 ;;		_main
 10900 ;;		_display_dashboard
 10901 ;;		_login
 10902 ;;		_display_menu
 10903 ;;		_view_records
 10904 ;;		_clear_records
 10905 ;;		_set_time
 10906 ;;		_password_change
 10907 ;; This function uses a non-reentrant model
 10908 ;;
 10909                           
 10910     12F8                     _clcd_print:	
 10911                           ;psect for function _clcd_print
 10912                           
 10913     12F8                     l4235:	
 10914                           ;incstack = 0
 10915                           ; Regs used in _clcd_print: [wreg-fsr0h+status,2+status,0+btemp+1+pclath+cstack]
 10916                           
 10917                           
 10918                           ;clcd.c: 58:     clcd_write(addr, 0);
 10919     12F8  01F2               	clrf	clcd_write@mode
 10920     12F9  0878               	movf	clcd_print@addr,w
 10921     12FA  160A  118A  23BB  160A  118A  	fcall	_clcd_write
 10922                           
 10923                           ;clcd.c: 60:     while (*str != '\0') {
 10924     12FF  2B16               	goto	l4241
 10925     1300                     l4237:
 10926                           
 10927                           ;clcd.c: 61:         clcd_write(*str, 1);
 10928     1300  01F2               	clrf	clcd_write@mode
 10929     1301  0AF2               	incf	clcd_write@mode,f
 10930     1302  0877               	movf	clcd_print@str+1,w
 10931     1303  00FF               	movwf	btemp+1
 10932     1304  0876               	movf	clcd_print@str,w
 10933     1305  0084               	movwf	4
 10934     1306  160A  118A  2000  160A  118A  	fcall	stringtab
 10935     130B  160A  118A  23BB  160A  118A  	fcall	_clcd_write
 10936     1310                     l4239:
 10937                           
 10938                           ;clcd.c: 62:         str++;
 10939     1310  3001               	movlw	1
 10940     1311  07F6               	addwf	clcd_print@str,f
 10941     1312  1803               	skipnc
 10942     1313  0AF7               	incf	clcd_print@str+1,f
 10943     1314  3000               	movlw	0
 10944     1315  07F7               	addwf	clcd_print@str+1,f
 10945     1316                     l4241:
 10946                           
 10947                           ;clcd.c: 60:     while (*str != '\0') {
 10948     1316  0877               	movf	clcd_print@str+1,w
 10949     1317  1283               	bcf	3,5	;RP0=0, select bank0
 10950     1318  1303               	bcf	3,6	;RP1=0, select bank0
 10951     1319  00FF               	movwf	btemp+1
 10952     131A  0876               	movf	clcd_print@str,w
 10953     131B  0084               	movwf	4
 10954     131C  160A  118A  2000  160A  118A  	fcall	stringtab
 10955     1321  3A00               	xorlw	0
 10956     1322  1D03               	skipz
 10957     1323  2B25               	goto	u3641
 10958     1324  2B26               	goto	u3640
 10959     1325                     u3641:
 10960     1325  2B00               	goto	l4237
 10961     1326                     u3640:
 10962     1326                     l55:
 10963     1326  0008               	return
 10964     1327                     __end_of_clcd_print:
 10965                           
 10966                           	psect	text50
 10967     13BB                     __ptext50:	
 10968 ;; *************** function _clcd_write *****************
 10969 ;; Defined at:
 10970 ;;		line 3 in file "clcd.c"
 10971 ;; Parameters:    Size  Location     Type
 10972 ;;  byte            1    wreg     unsigned char 
 10973 ;;  mode            1    2[COMMON] unsigned char 
 10974 ;; Auto vars:     Size  Location     Type
 10975 ;;  byte            1    5[COMMON] unsigned char 
 10976 ;; Return value:  Size  Location     Type
 10977 ;;                  1    wreg      void 
 10978 ;; Registers used:
 10979 ;;		wreg, status,2, status,0
 10980 ;; Tracked objects:
 10981 ;;		On entry : 0/0
 10982 ;;		On exit  : 0/0
 10983 ;;		Unchanged: 0/0
 10984 ;; Data sizes:     COMMON   BANK0   BANK1   BANK3   BANK2
 10985 ;;      Params:         1       0       0       0       0
 10986 ;;      Locals:         1       0       0       0       0
 10987 ;;      Temps:          2       0       0       0       0
 10988 ;;      Totals:         4       0       0       0       0
 10989 ;;Total ram usage:        4 bytes
 10990 ;; Hardware stack levels used: 1
 10991 ;; Hardware stack levels required when called: 1
 10992 ;; This function calls:
 10993 ;;		Nothing
 10994 ;; This function is called by:
 10995 ;;		_init_display_controller
 10996 ;;		_clcd_putch
 10997 ;;		_clcd_print
 10998 ;;		_main
 10999 ;;		_login
 11000 ;;		_set_time
 11001 ;;		_password_change
 11002 ;;		_clear_screen
 11003 ;; This function uses a non-reentrant model
 11004 ;;
 11005                           
 11006     13BB                     _clcd_write:	
 11007                           ;psect for function _clcd_write
 11008                           
 11009                           
 11010                           ;incstack = 0
 11011                           ; Regs used in _clcd_write: [wreg+status,2+status,0]
 11012                           ;clcd_write@byte stored from wreg
 11013     13BB  00F5               	movwf	clcd_write@byte
 11014     13BC                     l4101:
 11015                           
 11016                           ;clcd.c: 4:     RE2 = (__bit) mode;
 11017     13BC  1872               	btfsc	clcd_write@mode,0
 11018     13BD  2BBF               	goto	u3471
 11019     13BE  2BC3               	goto	u3470
 11020     13BF                     u3471:
 11021     13BF  1283               	bcf	3,5	;RP0=0, select bank0
 11022     13C0  1303               	bcf	3,6	;RP1=0, select bank0
 11023     13C1  1509               	bsf	9,2	;volatile
 11024     13C2  2BC6               	goto	u3484
 11025     13C3                     u3470:
 11026     13C3  1283               	bcf	3,5	;RP0=0, select bank0
 11027     13C4  1303               	bcf	3,6	;RP1=0, select bank0
 11028     13C5  1109               	bcf	9,2	;volatile
 11029     13C6                     u3484:
 11030     13C6                     l4103:
 11031                           
 11032                           ;clcd.c: 6:     PORTD = byte & 0xF0;
 11033     13C6  0875               	movf	clcd_write@byte,w
 11034     13C7  39F0               	andlw	240
 11035     13C8  0088               	movwf	8	;volatile
 11036     13C9                     l4105:
 11037                           
 11038                           ;clcd.c: 7:     RE1 = 1;
 11039     13C9  1489               	bsf	9,1	;volatile
 11040     13CA                     l4107:
 11041                           
 11042                           ;clcd.c: 8:     _delay((unsigned long)((100)*(20000000/4000000.0)));
 11043     13CA  30A6               	movlw	166
 11044     13CB  00F3               	movwf	??_clcd_write
 11045     13CC                     u5387:
 11046     13CC  0BF3               	decfsz	??_clcd_write,f
 11047     13CD  2BCC               	goto	u5387
 11048     13CE  0000               	nop
 11049     13CF                     l4109:
 11050                           
 11051                           ;clcd.c: 9:     RE1 = 0;
 11052     13CF  1283               	bcf	3,5	;RP0=0, select bank0
 11053     13D0  1303               	bcf	3,6	;RP1=0, select bank0
 11054     13D1  1089               	bcf	9,1	;volatile
 11055     13D2                     l4111:
 11056                           
 11057                           ;clcd.c: 11:     PORTD = (byte & 0x0F) << (unsigned char) 4;
 11058     13D2  0875               	movf	clcd_write@byte,w
 11059     13D3  390F               	andlw	15
 11060     13D4  00F3               	movwf	??_clcd_write
 11061     13D5  3003               	movlw	3
 11062     13D6                     u3495:
 11063     13D6  1003               	clrc
 11064     13D7  0DF3               	rlf	??_clcd_write,f
 11065     13D8  3EFF               	addlw	-1
 11066     13D9  1D03               	skipz
 11067     13DA  2BD6               	goto	u3495
 11068     13DB  1003               	clrc
 11069     13DC  0D73               	rlf	??_clcd_write,w
 11070     13DD  0088               	movwf	8	;volatile
 11071     13DE                     l4113:
 11072                           
 11073                           ;clcd.c: 12:     RE1 = 1;
 11074     13DE  1489               	bsf	9,1	;volatile
 11075     13DF                     l4115:
 11076                           
 11077                           ;clcd.c: 13:     _delay((unsigned long)((100)*(20000000/4000000.0)));
 11078     13DF  30A6               	movlw	166
 11079     13E0  00F3               	movwf	??_clcd_write
 11080     13E1                     u5397:
 11081     13E1  0BF3               	decfsz	??_clcd_write,f
 11082     13E2  2BE1               	goto	u5397
 11083     13E3  0000               	nop
 11084     13E4                     l4117:
 11085                           
 11086                           ;clcd.c: 14:     RE1 = 0;
 11087     13E4  1283               	bcf	3,5	;RP0=0, select bank0
 11088     13E5  1303               	bcf	3,6	;RP1=0, select bank0
 11089     13E6  1089               	bcf	9,1	;volatile
 11090     13E7                     l4119:
 11091                           
 11092                           ;clcd.c: 16:     _delay((unsigned long)((4100)*(20000000/4000000.0)));
 11093     13E7  301B               	movlw	27
 11094     13E8  00F4               	movwf	??_clcd_write+1
 11095     13E9  309E               	movlw	158
 11096     13EA  00F3               	movwf	??_clcd_write
 11097     13EB                     u5407:
 11098     13EB  0BF3               	decfsz	??_clcd_write,f
 11099     13EC  2BEB               	goto	u5407
 11100     13ED  0BF4               	decfsz	??_clcd_write+1,f
 11101     13EE  2BEB               	goto	u5407
 11102     13EF  0000               	nop
 11103     13F0                     l40:
 11104     13F0  0008               	return
 11105     13F1                     __end_of_clcd_write:
 11106                           
 11107                           	psect	text51
 11108     1357                     __ptext51:	
 11109 ;; *************** function _isr *****************
 11110 ;; Defined at:
 11111 ;;		line 5 in file "isr.c"
 11112 ;; Parameters:    Size  Location     Type
 11113 ;;		None
 11114 ;; Auto vars:     Size  Location     Type
 11115 ;;		None
 11116 ;; Return value:  Size  Location     Type
 11117 ;;                  1    wreg      void 
 11118 ;; Registers used:
 11119 ;;		wreg, status,2, status,0
 11120 ;; Tracked objects:
 11121 ;;		On entry : 0/0
 11122 ;;		On exit  : 0/0
 11123 ;;		Unchanged: 0/0
 11124 ;; Data sizes:     COMMON   BANK0   BANK1   BANK3   BANK2
 11125 ;;      Params:         0       0       0       0       0
 11126 ;;      Locals:         0       0       0       0       0
 11127 ;;      Temps:          2       0       0       0       0
 11128 ;;      Totals:         2       0       0       0       0
 11129 ;;Total ram usage:        2 bytes
 11130 ;; Hardware stack levels used: 1
 11131 ;; This function calls:
 11132 ;;		Nothing
 11133 ;; This function is called by:
 11134 ;;		Interrupt level 1
 11135 ;; This function uses a non-reentrant model
 11136 ;;
 11137                           
 11138     1357                     _isr:	
 11139                           ;psect for function _isr
 11140                           
 11141     1357                     i1l4013:
 11142                           
 11143                           ;isr.c: 6:     static unsigned int count = 0;;isr.c: 8:     if (TMR2IF == 1) {
 11144     1357  1283               	bcf	3,5	;RP0=0, select bank0
 11145     1358  1303               	bcf	3,6	;RP1=0, select bank0
 11146     1359  1C8C               	btfss	12,1	;volatile
 11147     135A  2B5C               	goto	u339_21
 11148     135B  2B5D               	goto	u339_20
 11149     135C                     u339_21:
 11150     135C  2B82               	goto	i1l547
 11151     135D                     u339_20:
 11152     135D                     i1l4015:
 11153                           
 11154                           ;isr.c: 9:         if (++count == 1250) {
 11155     135D  3001               	movlw	1
 11156     135E  07A9               	addwf	isr@count,f
 11157     135F  1803               	skipnc
 11158     1360  0AAA               	incf	isr@count+1,f
 11159     1361  3000               	movlw	0
 11160     1362  07AA               	addwf	isr@count+1,f
 11161     1363  30E2               	movlw	226
 11162     1364  0629               	xorwf	isr@count,w
 11163     1365  3004               	movlw	4
 11164     1366  1903               	skipnz
 11165     1367  062A               	xorwf	isr@count+1,w
 11166     1368  1D03               	btfss	3,2
 11167     1369  2B6B               	goto	u340_21
 11168     136A  2B6C               	goto	u340_20
 11169     136B                     u340_21:
 11170     136B  2B81               	goto	i1l4027
 11171     136C                     u340_20:
 11172     136C                     i1l4017:
 11173                           
 11174                           ;isr.c: 10:             if (sec > 0)
 11175     136C  083C               	movf	_sec,w
 11176     136D  1903               	btfsc	3,2
 11177     136E  2B70               	goto	u341_21
 11178     136F  2B71               	goto	u341_20
 11179     1370                     u341_21:
 11180     1370  2B73               	goto	i1l545
 11181     1371                     u341_20:
 11182     1371                     i1l4019:
 11183                           
 11184                           ;isr.c: 11:                 sec--;
 11185     1371  3001               	movlw	1
 11186     1372  02BC               	subwf	_sec,f
 11187     1373                     i1l545:
 11188                           
 11189                           ;isr.c: 12:             if (sec == 0 && return_time > 0)
 11190     1373  083C               	movf	_sec,w
 11191     1374  1D03               	btfss	3,2
 11192     1375  2B77               	goto	u342_21
 11193     1376  2B78               	goto	u342_20
 11194     1377                     u342_21:
 11195     1377  2B7F               	goto	i1l4025
 11196     1378                     u342_20:
 11197     1378                     i1l4021:
 11198     1378  083D               	movf	_return_time,w
 11199     1379  1903               	btfsc	3,2
 11200     137A  2B7C               	goto	u343_21
 11201     137B  2B7D               	goto	u343_20
 11202     137C                     u343_21:
 11203     137C  2B7F               	goto	i1l4025
 11204     137D                     u343_20:
 11205     137D                     i1l4023:
 11206                           
 11207                           ;isr.c: 13:                 return_time--;
 11208     137D  3001               	movlw	1
 11209     137E  02BD               	subwf	_return_time,f
 11210     137F                     i1l4025:
 11211                           
 11212                           ;isr.c: 14:             count = 0;
 11213     137F  01A9               	clrf	isr@count
 11214     1380  01AA               	clrf	isr@count+1
 11215     1381                     i1l4027:
 11216                           
 11217                           ;isr.c: 17:         TMR2IF = 0;
 11218     1381  108C               	bcf	12,1	;volatile
 11219     1382                     i1l547:
 11220     1382  0871               	movf	??_isr+1,w
 11221     1383  008A               	movwf	10
 11222     1384  0E70               	swapf	??_isr,w
 11223     1385  0083               	movwf	3
 11224     1386  0EFE               	swapf	btemp,f
 11225     1387  0E7E               	swapf	btemp,w
 11226     1388  0009               	retfie
 11227     1389                     __end_of_isr:
 11228     007E                     btemp	set	126	;btemp
 11229     007E                     wtemp0	set	126
 11230                           
 11231                           	psect	intentry
 11232     0004                     __pintentry:	
 11233                           ;incstack = 0
 11234                           ; Regs used in _isr: [wreg+status,2+status,0]
 11235                           
 11236     0004                     interrupt_function:
 11237     007E                     saved_w	set	btemp
 11238     0004  00FE               	movwf	btemp
 11239     0005  0E03               	swapf	3,w
 11240     0006  00F0               	movwf	??_isr
 11241     0007  080A               	movf	10,w
 11242     0008  00F1               	movwf	??_isr+1
 11243     0009  160A  118A  2B57   	ljmp	_isr
 11244                           
 11245                           	psect	idloc
 11246                           
 11247                           ;Config register IDLOC0 @ 0x2000
 11248                           ;	unspecified, using default values
 11249     2000                     	org	8192
 11250     2000  3FFF               	dw	16383
 11251                           
 11252                           ;Config register IDLOC1 @ 0x2001
 11253                           ;	unspecified, using default values
 11254     2001                     	org	8193
 11255     2001  3FFF               	dw	16383
 11256                           
 11257                           ;Config register IDLOC2 @ 0x2002
 11258                           ;	unspecified, using default values
 11259     2002                     	org	8194
 11260     2002  3FFF               	dw	16383
 11261                           
 11262                           ;Config register IDLOC3 @ 0x2003
 11263                           ;	unspecified, using default values
 11264     2003                     	org	8195
 11265     2003  3FFF               	dw	16383
 11266                           
 11267                           	psect	config
 11268                           
 11269                           ;Config register CONFIG @ 0x2007
 11270                           ;	Oscillator Selection bits
 11271                           ;	FOSC = 0x3, unprogrammed default
 11272                           ;	Watchdog Timer Enable bit
 11273                           ;	WDTE = OFF, WDT disabled
 11274                           ;	Power-up Timer Enable bit
 11275                           ;	PWRTE = 0x1, unprogrammed default
 11276                           ;	Brown-out Reset Enable bit
 11277                           ;	BOREN = 0x1, unprogrammed default
 11278                           ;	Low-Voltage (Single-Supply) In-Circuit Serial Programming Enable bit
 11279                           ;	LVP = 0x1, unprogrammed default
 11280                           ;	Data EEPROM Memory Code Protection bit
 11281                           ;	CPD = 0x1, unprogrammed default
 11282                           ;	Flash Program Memory Write Enable bits
 11283                           ;	WRT = 0x3, unprogrammed default
 11284                           ;	In-Circuit Debugger Mode bit
 11285                           ;	DEBUG = 0x1, unprogrammed default
 11286                           ;	Flash Program Memory Code Protection bit
 11287                           ;	CP = 0x1, unprogrammed default
 11288     2007                     	org	8199
 11289     2007  3FFB               	dw	16379

Data Sizes:
    Strings     467
    Constant    0
    Data        31
    BSS         61
    Persistent  0
    Stack       0

Auto Spaces:
    Space          Size  Autos    Used
    COMMON           14     10      12
    BANK0            80     25      71
    BANK1            80     11      55
    BANK3            96      0       0
    BANK2            96      0       0

Pointer List with Targets:

    clcd_print@str	PTR const unsigned char  size(2) Largest target is 17
		 -> main@event(BANK1[3]), STR_10(CODE[15]), STR_12(CODE[17]), STR_14(CODE[16]), 
		 -> STR_16(CODE[15]), STR_19(CODE[9]), STR_20(CODE[10]), STR_21(CODE[13]), 
		 -> STR_22(CODE[9]), STR_23(CODE[14]), STR_24(CODE[15]), STR_25(CODE[14]), 
		 -> STR_26(CODE[16]), STR_27(CODE[12]), STR_28(CODE[4]), STR_29(CODE[15]), 
		 -> STR_30(CODE[14]), STR_31(CODE[15]), STR_32(CODE[17]), STR_33(CODE[13]), 
		 -> STR_34(CODE[13]), STR_41(CODE[16]), STR_42(CODE[13]), STR_43(CODE[13]), 
		 -> STR_44(CODE[3]), STR_45(CODE[3]), STR_46(CODE[3]), STR_47(CODE[17]), 
		 -> STR_48(CODE[17]), STR_49(CODE[13]), STR_50(CODE[17]), STR_51(CODE[7]), 

    display_dashboard@event	PTR unsigned char  size(1) Largest target is 3
		 -> main@event(BANK1[3]), 

    eeprom_write_string@data	PTR unsigned char  size(2) Largest target is 11
		 -> password_change@usr_pwd(BANK0[4]), records(BANK1[11]), STR_8(CODE[5]), 

    gear	PTR unsigned char [6] size(2) Largest target is 3
		 -> STR_1(CODE[3]), STR_2(CODE[3]), STR_3(CODE[3]), STR_4(CODE[3]), 
		 -> STR_5(CODE[3]), STR_6(CODE[3]), 

    menu	PTR unsigned char [5] size(2) Largest target is 14
		 -> STR_19(CODE[9]), STR_20(CODE[10]), STR_21(CODE[13]), STR_22(CODE[9]), 
		 -> STR_23(CODE[14]), 

    puts@s	PTR const unsigned char  size(2) Largest target is 37
		 -> STR_35(CODE[18]), STR_36(CODE[7]), STR_37(CODE[37]), STR_38(CODE[4]), 
		 -> STR_39(CODE[7]), STR_40(CODE[11]), STR_7(CODE[17]), 

    record_event@event	PTR unsigned char  size(2) Largest target is 3
		 -> main@event(BANK1[3]), STR_11(CODE[3]), STR_13(CODE[3]), STR_15(CODE[3]), 
		 -> STR_17(CODE[3]), STR_18(CODE[3]), 

    sp__strcpy	PTR unsigned char  size(1) Largest target is 3
		 -> main@event(BANK1[3]), 

    sp__strncpy	PTR unsigned char  size(1) Largest target is 11
		 -> records(BANK1[11]), 

    strcpy@d	PTR unsigned char  size(1) Largest target is 3
		 -> main@event(BANK1[3]), 

    strcpy@dest	PTR unsigned char  size(1) Largest target is 3
		 -> main@event(BANK1[3]), 

    strcpy@src	PTR const unsigned char  size(2) Largest target is 3
		 -> STR_1(CODE[3]), STR_2(CODE[3]), STR_3(CODE[3]), STR_4(CODE[3]), 
		 -> STR_5(CODE[3]), STR_6(CODE[3]), STR_9(CODE[3]), 

    strncmp@l	PTR const unsigned char  size(1) Largest target is 4
		 -> login@usr_pwd(BANK1[4]), password_change@usr_pwd(BANK0[4]), 

    strncmp@r	PTR const unsigned char  size(1) Largest target is 4
		 -> login@saved_pwd(BANK0[4]), password_change@re_usr_pwd(BANK1[4]), 

    strncpy@cp	PTR unsigned char  size(1) Largest target is 11
		 -> records(BANK1[11]), 

    strncpy@d	PTR unsigned char  size(1) Largest target is 11
		 -> records(BANK1[11]), 

    strncpy@s	PTR const unsigned char  size(2) Largest target is 7
		 -> main@event(BANK1[3]), STR_11(CODE[3]), STR_13(CODE[3]), STR_15(CODE[3]), 
		 -> STR_17(CODE[3]), STR_18(CODE[3]), time(BANK0[7]), 


Critical Paths under _main in COMMON

    _main->___lwdiv
    _main->_clear_records
    _set_time->___awdiv
    _set_time->___lwdiv
    ___lwdiv->_read_adc
    _record_event->___awdiv
    _record_event->_strncpy
    _store_records_EEPROM->_eeprom_write_string
    _eeprom_write_string->_eeprom_write
    _eeprom_write->_i2c_write
    _login->___awdiv
    _init_uart->___lldiv
    _init_i2c->___lldiv
    _init_ds1307->_read_ds1307
    _write_ds1307->_i2c_write
    _init_clcd->_init_display_controller
    _init_display_controller->_clcd_write
    _download_records->_eeprom_read
    _puts->_putchar
    _eeprom_read->_i2c_read
    _clear_screen->_clcd_write
    _display_dashboard->___awdiv
    _get_time->_read_ds1307
    _read_ds1307->_i2c_read
    _clcd_putch->___awdiv
    _clear_records->_clcd_print
    _clcd_print->_clcd_write

Critical Paths under _isr in COMMON

    None.

Critical Paths under _main in BANK0

    _main->_view_records
    _view_records->_clcd_putch
    _set_time->___lwdiv
    _password_change->_clcd_putch
    _login->_clcd_putch
    _init_config->_init_i2c
    _init_config->_init_uart
    _init_uart->___lldiv
    _init_i2c->___lldiv
    _display_menu->_clcd_putch
    _display_dashboard->_clcd_putch
    _display_time->_clcd_putch

Critical Paths under _isr in BANK0

    None.

Critical Paths under _main in BANK1

    None.

Critical Paths under _isr in BANK1

    None.

Critical Paths under _main in BANK3

    None.

Critical Paths under _isr in BANK3

    None.

Critical Paths under _main in BANK2

    None.

Critical Paths under _isr in BANK2

    None.

Call Graph Tables:

 ---------------------------------------------------------------------------------
 (Depth) Function   	        Calls       Base Space   Used Autos Params    Refs
 ---------------------------------------------------------------------------------
 (0) _main                                                14    14      0  172323
                                             22 BANK0      3     3      0
                                              0 BANK1     11    11      0
                            ___lwdiv
                         _clcd_print
                         _clcd_write
                      _clear_records
                       _clear_screen
                  _display_dashboard
                       _display_menu
                   _download_records
                _eeprom_write_string
                        _init_config
                              _login
                    _password_change
                           _read_adc
                _read_digital_keypad
                       _record_event
                           _set_time
                             _strcpy
                       _view_records
 ---------------------------------------------------------------------------------
 (1) _view_records                                        20    19      1   16736
                                              2 BANK0     20    19      1
                             ___bmul
                         _clcd_print
                         _clcd_putch
                        _eeprom_read
 ---------------------------------------------------------------------------------
 (2) _strcpy                                               6     4      2     481
                                              2 COMMON     6     4      2
 ---------------------------------------------------------------------------------
 (1) _set_time                                             6     5      1   24352
                                              3 BANK0      6     5      1
                            ___awdiv
                            ___lwdiv
                            ___lwmod
                             ___wmul
                         _clcd_print
                         _clcd_putch
                         _clcd_write
                           _get_time
                       _write_ds1307
 ---------------------------------------------------------------------------------
 (2) ___wmul                                               6     2      4    1336
                                              2 COMMON     6     2      4
 ---------------------------------------------------------------------------------
 (2) ___lwmod                                              5     1      4    1492
                                              2 COMMON     5     1      4
 ---------------------------------------------------------------------------------
 (2) ___lwdiv                                              7     3      4     961
                                              6 COMMON     4     0      4
                                              0 BANK0      3     3      0
                           _read_adc (ARG)
 ---------------------------------------------------------------------------------
 (1) _record_event                                         5     2      3    5964
                                              0 BANK0      5     2      3
                            ___awdiv
                            ___awmod
                           _get_time
               _store_records_EEPROM
                            _strncpy
 ---------------------------------------------------------------------------------
 (3) _strncpy                                              8     4      4     634
                                              2 COMMON     8     4      4
 ---------------------------------------------------------------------------------
 (2) _store_records_EEPROM                                 0     0      0     958
                             ___bmul
                _eeprom_write_string
 ---------------------------------------------------------------------------------
 (1) _read_digital_keypad                                  6     6      0     223
                                              2 COMMON     6     6      0
 ---------------------------------------------------------------------------------
 (1) _read_adc                                             4     2      2      34
                                              2 COMMON     4     2      2
 ---------------------------------------------------------------------------------
 (1) _password_change                                      5     4      1   22508
                                              2 BANK0      5     4      1
                         _clcd_print
                         _clcd_putch
                         _clcd_write
                       _clear_screen
                _eeprom_write_string
                            _strncmp
 ---------------------------------------------------------------------------------
 (3) _eeprom_write_string                                  3     1      2     552
                                              5 COMMON     3     1      2
                       _eeprom_write
 ---------------------------------------------------------------------------------
 (4) _eeprom_write                                         2     1      1     183
                                              3 COMMON     2     1      1
                          _i2c_start
                           _i2c_stop
                          _i2c_write
 ---------------------------------------------------------------------------------
 (1) _login                                               11    10      1   24791
                                              2 BANK0     11    10      1
                            ___awdiv
                            ___awmod
                         _clcd_print
                         _clcd_putch
                         _clcd_write
                       _clear_screen
                        _eeprom_read
                            _strncmp
 ---------------------------------------------------------------------------------
 (2) _strncmp                                              6     3      3     689
                                              2 COMMON     6     3      3
 ---------------------------------------------------------------------------------
 (1) _init_config                                          0     0      0    5735
                           _init_adc
                          _init_clcd
                _init_digital_keypad
                        _init_ds1307
                           _init_i2c
                        _init_timer2
                          _init_uart
                               _puts
 ---------------------------------------------------------------------------------
 (2) _init_uart                                            8     4      4     722
                                              6 BANK0      8     4      4
                            ___lldiv
 ---------------------------------------------------------------------------------
 (2) _init_timer2                                          0     0      0       0
 ---------------------------------------------------------------------------------
 (2) _init_i2c                                             8     4      4     722
                                              6 BANK0      8     4      4
                            ___lldiv
 ---------------------------------------------------------------------------------
 (3) ___lldiv                                             14     6      8     601
                                              2 COMMON     8     0      8
                                              0 BANK0      6     6      0
 ---------------------------------------------------------------------------------
 (2) _init_ds1307                                          1     1      0     682
                                              6 COMMON     1     1      0
                        _read_ds1307
                       _write_ds1307
 ---------------------------------------------------------------------------------
 (2) _write_ds1307                                         2     1      1     453
                                              3 COMMON     2     1      1
                          _i2c_start
                           _i2c_stop
                          _i2c_write
 ---------------------------------------------------------------------------------
 (2) _init_digital_keypad                                  0     0      0       0
 ---------------------------------------------------------------------------------
 (2) _init_clcd                                            0     0      0    2883
            _init_display_controller
 ---------------------------------------------------------------------------------
 (3) _init_display_controller                              2     2      0    2883
                                              6 COMMON     2     2      0
                         _clcd_write
 ---------------------------------------------------------------------------------
 (2) _init_adc                                             0     0      0       0
 ---------------------------------------------------------------------------------
 (1) _download_records                                    19    19      0    2066
                                              6 COMMON     1     1      0
                                              0 BANK0     18    18      0
                             ___bmul
                        _eeprom_read
                            _putchar
                               _puts
 ---------------------------------------------------------------------------------
 (2) _puts                                                 2     0      2     726
                                              3 COMMON     2     0      2
                            _putchar
 ---------------------------------------------------------------------------------
 (3) _putchar                                              1     1      0      31
                                              2 COMMON     1     1      0
 ---------------------------------------------------------------------------------
 (2) _eeprom_read                                          2     2      0     161
                                              4 COMMON     2     2      0
                           _i2c_read
                      _i2c_rep_start
                          _i2c_start
                           _i2c_stop
                          _i2c_write
 ---------------------------------------------------------------------------------
 (2) ___bmul                                               3     2      1     406
                                              2 COMMON     3     2      1
 ---------------------------------------------------------------------------------
 (1) _display_menu                                         4     3      1   18350
                                              2 BANK0      4     3      1
                         _clcd_print
                         _clcd_putch
                       _clear_screen
 ---------------------------------------------------------------------------------
 (2) _clear_screen                                         2     2      0    2883
                                              6 COMMON     2     2      0
                         _clcd_write
 ---------------------------------------------------------------------------------
 (1) _display_dashboard                                    4     3      1   24887
                                              2 BANK0      4     3      1
                            ___awdiv
                            ___awmod
                         _clcd_print
                         _clcd_putch
                       _display_time
 ---------------------------------------------------------------------------------
 (2) _display_time                                         0     0      0    6886
                         _clcd_putch
                           _get_time
 ---------------------------------------------------------------------------------
 (2) _get_time                                             1     1      0     161
                                              6 COMMON     1     1      0
                        _read_ds1307
 ---------------------------------------------------------------------------------
 (3) _read_ds1307                                          2     2      0     161
                                              4 COMMON     2     2      0
                           _i2c_read
                      _i2c_rep_start
                          _i2c_start
                           _i2c_stop
                          _i2c_write
 ---------------------------------------------------------------------------------
 (3) _i2c_write                                            1     1      0      31
                                              2 COMMON     1     1      0
                  _i2c_wait_for_idle
 ---------------------------------------------------------------------------------
 (3) _i2c_rep_start                                        0     0      0       0
                          _i2c_start
                           _i2c_stop
 ---------------------------------------------------------------------------------
 (3) _i2c_stop                                             0     0      0       0
                  _i2c_wait_for_idle
 ---------------------------------------------------------------------------------
 (3) _i2c_start                                            0     0      0       0
                  _i2c_wait_for_idle
 ---------------------------------------------------------------------------------
 (3) _i2c_read                                             2     2      0      65
                                              2 COMMON     2     2      0
                  _i2c_wait_for_idle
 ---------------------------------------------------------------------------------
 (4) _i2c_wait_for_idle                                    0     0      0       0
 ---------------------------------------------------------------------------------
 (2) _clcd_putch                                           2     1      1    6725
                                              0 BANK0      2     1      1
                            ___awdiv (ARG)
                            ___awmod (ARG)
                            ___lwmod (ARG)
                         _clcd_write
 ---------------------------------------------------------------------------------
 (2) ___awmod                                              6     2      4     973
                                              2 COMMON     6     2      4
 ---------------------------------------------------------------------------------
 (2) ___awdiv                                              8     4      4    1525
                                              2 COMMON     8     4      4
 ---------------------------------------------------------------------------------
 (1) _clear_records                                        1     1      0    8590
                                              9 COMMON     1     1      0
                         _clcd_print
 ---------------------------------------------------------------------------------
 (2) _clcd_print                                           3     0      3    8559
                                              6 COMMON     3     0      3
                         _clcd_write
 ---------------------------------------------------------------------------------
 (3) _clcd_write                                           4     3      1    2883
                                              2 COMMON     4     3      1
 ---------------------------------------------------------------------------------
 Estimated maximum stack depth 4
 ---------------------------------------------------------------------------------
 (Depth) Function   	        Calls       Base Space   Used Autos Params    Refs
 ---------------------------------------------------------------------------------
 (8) _isr                                                  2     2      0       0
                                              0 COMMON     2     2      0
 ---------------------------------------------------------------------------------
 Estimated maximum stack depth 8
 ---------------------------------------------------------------------------------

 Call Graph Graphs:

 _main (ROOT)
   ___lwdiv
     _read_adc (ARG)
   _clcd_print
     _clcd_write
   _clcd_write
   _clear_records
     _clcd_print
   _clear_screen
     _clcd_write
   _display_dashboard
     ___awdiv
     ___awmod
     _clcd_print
     _clcd_putch
       ___awdiv (ARG)
       ___awmod (ARG)
       ___lwmod (ARG)
       _clcd_write (ARG)
     _display_time
       _clcd_putch
       _get_time
         _read_ds1307
           _i2c_read
             _i2c_wait_for_idle
           _i2c_rep_start
             _i2c_start
               _i2c_wait_for_idle
             _i2c_stop
               _i2c_wait_for_idle
           _i2c_start
           _i2c_stop
           _i2c_write
             _i2c_wait_for_idle
   _display_menu
     _clcd_print
     _clcd_putch
     _clear_screen
   _download_records
     ___bmul
     _eeprom_read
       _i2c_read
       _i2c_rep_start
       _i2c_start
       _i2c_stop
       _i2c_write
     _putchar
     _puts
       _putchar
   _eeprom_write_string
     _eeprom_write
       _i2c_start
       _i2c_stop
       _i2c_write
   _init_config
     _init_adc
     _init_clcd
       _init_display_controller
         _clcd_write
     _init_digital_keypad
     _init_ds1307
       _read_ds1307
       _write_ds1307
         _i2c_start
         _i2c_stop
         _i2c_write
     _init_i2c
       ___lldiv
     _init_timer2
     _init_uart
       ___lldiv
     _puts
   _login
     ___awdiv
     ___awmod
     _clcd_print
     _clcd_putch
     _clcd_write
     _clear_screen
     _eeprom_read
     _strncmp
   _password_change
     _clcd_print
     _clcd_putch
     _clcd_write
     _clear_screen
     _eeprom_write_string
     _strncmp
   _read_adc
   _read_digital_keypad
   _record_event
     ___awdiv
     ___awmod
     _get_time
     _store_records_EEPROM
       ___bmul
       _eeprom_write_string
     _strncpy
   _set_time
     ___awdiv
     ___lwdiv
     ___lwmod
     ___wmul
     _clcd_print
     _clcd_putch
     _clcd_write
     _get_time
     _write_ds1307
   _strcpy
   _view_records
     ___bmul
     _clcd_print
     _clcd_putch
     _eeprom_read

 _isr (ROOT)

 Address spaces:
Name               Size   Autos  Total    Cost      Usage
BANK3               60      0       0       9        0.0%
BITBANK3            60      0       0       8        0.0%
SFR3                 0      0       0       4        0.0%
BITSFR3              0      0       0       4        0.0%
BANK2               60      0       0      11        0.0%
BITBANK2            60      0       0      10        0.0%
SFR2                 0      0       0       5        0.0%
BITSFR2              0      0       0       5        0.0%
BANK1               50      B      37       7       68.8%
BITBANK1            50      0       0       6        0.0%
SFR1                 0      0       0       2        0.0%
BITSFR1              0      0       0       2        0.0%
BANK0               50     19      47       5       88.8%
BITBANK0            50      0       0       4        0.0%
SFR0                 0      0       0       1        0.0%
BITSFR0              0      0       0       1        0.0%
COMMON               E      A       C       1       85.7%
BITCOMMON            E      0       0       0        0.0%
CODE                 0      0       0       0        0.0%
DATA                 0      0      8A      12        0.0%
ABS                  0      0      8A       3        0.0%
NULL                 0      0       0       0        0.0%
STACK                0      0       0       2        0.0%
EEDATA             100      0       0       0        0.0%


Microchip Technology PIC Macro Assembler V2.46 build 20240104201356 
Symbol Table                                                                                   Wed Oct 09 14:53:40 2024

                                     pc 0002                          ___bmul@product 0073  
                        clcd_print@addr 0078                  display_menu@reset_flag 004B  
                                    l20 129F                                      l23 11BD  
                                    l40 13F0                                      l17 1149  
                                    l43 1798                                      l46 10F9  
                                    l55 1326                                      l49 1171  
                                    l90 1106                                      l84 13BA  
                                    l93 10C4                                      l87 10FA  
                                    l96 10D8                                      _GO 00FA  
                                    l99 10CD                            ___awdiv@sign 0077  
          read_digital_keypad@key_state 007B                                      fsr 0004  
                   ___wmul@multiplicand 0074                       download_records@i 0059  
                                   l102 06F9                                     l103 06FC  
                                   l104 06FE                                     l107 10E3  
                                   l116 10AC                                     l221 14AC  
                                   l126 09D3                                     l135 09D2  
                                   l160 1136                                     l154 10B3  
                                   l402 0CDC                                     l242 027A  
                                   l340 1684                                     l500 11DB  
                                   l157 1128                                     l334 1587  
                                   l350 16DC                                     l271 02E2  
                                   l408 1274                                     l337 162D  
                                   l417 0B0E                                     l361 0FFF  
                                   l530 1113                                     l506 12F7  
                                   l434 06DD                                     l419 0BA4  
                                   l347 1469                                     l380 0A7F  
                                   l704 093E                                     l466 0E55  
                                   l484 1124                                     l564 1356  
                                   l821 17FF                                     l397 0C0E  
                                   l574 10E9                                     l582 1249  
                                   l670 1223                                     l575 10ED  
                                   l576 10EE                                     l497 12CA  
                                   l834 1735                                     l668 120B  
                                   l694 1186                                     l948 14F2  
                                   l958 142A                                     _GIE 005F  
                                   _RE1 0049                                     _RE2 004A  
                         ?_display_menu 004B                                     _PR2 0092  
                                   _PEN 048A                                     _SEN 0488  
                                   _PSA 040B                           ?_display_time 0070  
                  ?_eeprom_write_string 0075                                     _sec 003C  
                                   _isr 1357                          clcd_putch@addr 0049  
                                   _pos 0064                                     fsr0 0004  
                        clcd_putch@data 004A                                     indf 0000  
                          ___awmod@sign 0077              password_change@pwd_changed 0034  
     read_digital_keypad@press_duration 0031                                    l1130 11FE  
                                  l1134 15D7                                    l1149 153A  
                 ??_read_digital_keypad 0072                                    l4101 13BC  
                                  l4111 13D2                                    l4103 13C6  
                                  l4113 13DE                                    l4105 13C9  
                                  l4201 08F5                                    l4121 11BF  
                                  l5001 05B2                                    l4115 13DF  
                                  l4107 13CA                                    l4131 1755  
                                  l4123 11A1                                    l4211 0926  
                                  l4203 08F9                                    l5011 05D1  
                                  l5003 05BB                                    l4117 13E4  
                                  l4109 13CF                                    l4061 1100  
                                  l4141 1777                                    l4133 175A  
                                  l4125 1736                                    l4221 1137  
                                  l4213 0927                                    l4205 08FD  
                                  l4301 151D                                    l5013 05D3  
                                  l5005 05BD                                    l4119 13E7  
                                  l4063 10BC                                    l4071 10DA  
                                  l4311 12C9                                    l4143 177C  
                                  l4135 1761                                    l4127 173E  
                                  l4231 10F3                                    l4223 113E  
                                  l4215 0930                                    l4207 0906  
                                  l4151 12CC                                    l5111 0D6E  
                                  l4303 1524                                    l5031 0613  
                                  l5023 05EC                                    l5015 05DD  
                                  l5007 05C6                                    l4241 1316  
                                  l4401 16E7                                    l4081 06DF  
                                  l4065 10C1                                    l4073 10DF  
                                  l4161 153B                                    l4145 178C  
                                  l4137 1764                                    l4129 1745  
                                  l4233 10F4                                    l4225 1141  
                                  l4209 0918                                    l4217 0936  
                                  l4321 159A                                    l4153 12CD  
                                  l5113 0D75                                    l5105 0D57  
                                  l5121 0D8A                                    l4305 1528  
                                  l5041 0662                                    l5025 05F7  
                                  l5017 05DE                                    l5009 05C8  
                                  l5201 0052                                    l4235 12F8  
                                  l4411 16FB                                    l4403 16E9  
                                  l4059 10FA                                    l4091 06FD  
                                  l4083 06E4                                    l4067 10C5  
                                  l4075 10E3                                    l4171 1576  
                                  l4163 1556                                    l4251 10AD  
                                  l4147 1793                                    l4139 176B  
                                  l4227 10EF                                    l4243 1389  
                                  l4331 15BD                                    l4323 15A2  
                                  l4315 1589                                    l4155 12DD  
                                  l5131 0DA7                                    l5115 0D7C  
                                  l5107 0D5E                                    l4307 152C  
                                  l5043 066C                                    l5027 0607  
                                  l5019 05E6                                    l5211 0080  
                                  l5203 0053                                    l4237 1300  
                                  l4421 171A                                    l4413 1702  
                                  l4405 16ED                                    l4149 1160  
                                  l4085 06EC                                    l4069 10CA  
                                  l4173 1582                                    l4165 1562  
                                  l4181 1174                                    l4309 12A1  
                                  l4229 10F2                                    l4245 138C  
                                  l4253 1107                                    l4261 1327  
                                  l4333 15C9                                    l4317 1597  
                                  l4325 15A8                                    l4157 12E3  
                                  l5133 0DAA                                    l5125 0D90  
                                  l5117 0D83                                    l5109 0D63  
                                  l5061 0CE6                                    l4501 096C  
                                  l4341 1205                                    l5045 0687  
                                  l5037 061F                                    l5301 01E9  
                                  l5221 00A3                                    l5213 0086  
                                  l5205 0054                                    l4239 1310  
                                  l4351 1799                                    l4423 1721  
                                  l4415 1706                                    l4407 16F2  
                                  l4087 06F0                                    l4079 10CE  
                                  l4095 1276                                    l4175 1586  
                                  l4167 1566                                    l4191 1185  
                                  l4183 1178                                    l4271 1239  
                                  l4247 13B7                                    l4255 110B  
                                  l4263 132B                                    l4327 15B0  
                                  l4159 12E7                                    l5151 0DE5  
                                  l5135 0DB0                                    l5127 0D96  
                                  l5143 0DBA                                    l5119 0D87  
                                  l5063 0CF6                                    l4511 098D  
                                  l4503 0970                                    l4343 1212  
                                  l5047 069F                                    l5039 062F  
                                  l5311 020B                                    l5303 01EE  
                                  l5231 00F6                                    l5223 00A9  
                                  l5215 0088                                    l5207 0060  
                                  l4361 17A9                                    l4353 179A  
                                  l4417 170A                                    l4409 16F8  
                                  l4425 1727                                    l4089 06F5  
                                  l4097 129E                                    l4169 1572  
                                  l4601 163C                                    l4273 1114  
                                  l4185 117C                                    l4177 10E5  
                                  l4265 1224                                    l4249 10A7  
                                  l4257 110F                                    l4329 15B7  
                                  l5161 0E07                                    l5153 0DE9  
                                  l5145 0DC2                                    l5129 0D9F  
                                  l5081 0D0F                                    l5073 0D03  
                                  l5065 0CFA                                    l4521 099A  
                                  l4513 0992                                    l4505 0972  
                                  l4281 1433                                    l4441 14C1  
                                  l4433 14AD                                    l4345 1219  
                                  l4337 11FF                                    l5401 0333  
                                  l5313 0216                                    l5305 01FF  
                                  l5241 011E                                    l5233 00FD  
                                  l5225 00C5                                    l5217 0091  
                                  l5209 006A                                    l4371 17BD  
                                  l4363 17AE                                    l4355 179E  
                                  l4427 172C                                    l4419 1714  
                                  l4603 1641                                    l4275 111B  
                                  l4187 117E                                    l4179 1173  
                                  l4267 1225                                    l4195 08D7  
                                  l4259 1110                                    l4611 0E5F  
                                  l5163 0E12                                    l5155 0DEE  
                                  l5147 0DC9                                    l5091 0D35  
                                  l5083 0D15                                    l5075 0D08  
                                  l5067 0CFC                                    l5059 0CE0  
                                  l4531 09AE                                    l4507 0978  
                                  l4523 099E                                    l4291 1461  
                                  l4283 143A                                    l4451 14E1  
                                  l4443 14C5                                    l4435 14B1  
                                  l4347 121F                                    l4339 1201  
                                  l5411 036A                                    l5403 033E  
                                  l5331 0244                                    l5315 021D  
                                  l5307 0204                                    l5323 0225  
                                  l5251 0143                                    l5235 0103  
                                  l5243 0130                                    l5227 00CB  
                                  l5219 0095                                    l4381 17E3  
                                  l4373 17C4                                    l4365 17B2  
                                  l4357 17A3                                    l4429 1731  
                                  l4277 15D8                                    l4605 164E  
                                  l4189 1180                                    l4269 1233  
                                  l4197 08E9                                    l4701 0F8E  
                                  l4621 0E67                                    l4613 0E61  
                                  l5181 0E50                                    l5165 0E21  
                                  l5157 0DF5                                    l5149 0DDB  
                                  l5173 0E27                                    l5085 0D1E  
                                  l5093 0D38                                    l5069 0D01  
                                  l4533 09BB                                    l4509 097E  
                                  l4285 143C                                    l4293 14F4  
                                  l4453 14E8                                    l4445 14C9  
                                  l4437 14B7                                    l4461 13F7  
                                  l5405 034D                                    l5341 025F  
                                  l5333 024A                                    l5309 0206  
                                  l5325 0236                                    l5261 0168  
                                  l5253 0148                                    l5245 0136  
                                  l5237 0108                                    l5229 00D1  
                                  l4391 17FB                                    l4383 17E4  
                                  l4375 17C8                                    l4367 17B4  
                                  l4359 17A5                                    l4607 1669  
                                  l4199 08EC                                    l4711 0FC5  
                                  l4703 0F95                                    l4623 0E68  
                                  l4615 0E62                                    l5175 0E33  
                                  l5167 0E25                                    l5159 0DFC  
                                  l5095 0D3E                                    l5087 0D24  
                                  l5079 0D0A                                    l4535 09C0  
                                  l4519 0998                                    l4527 09A0  
                                  l4287 1448                                    l4279 142B  
                                  l4295 14F7                                    l4447 14DA  
                                  l4439 14BA                                    l4455 14EE  
                                  l4471 1413                                    l4463 13FA  
                                  l5431 039F                                    l5423 0373  
                                  l5415 036D                                    l5407 0355  
                                  l5351 027B                                    l5335 0250  
                                  l5343 026C                                    l5327 023C  
                                  l5271 017D                                    l5263 016C  
                                  l5255 0153                                    l5247 013C  
                                  l5239 010A                                    l4385 17EB  
                                  l4377 17CC                                    l4369 17BA  
                                  l4561 146A                                    l4721 0FFC  
                                  l4713 0FD3                                    l4705 0F98  
                                  l4641 0E90                                    l4633 0E75  
                                  l4625 0E6C                                    l4617 0E65  
                                  l4609 0E59                                    l5177 0E3A  
                                  l5097 0D47                                    l5089 0D2D  
                                  l4545 09CA                                    l4537 09C2  
                                  l4529 09A6                                    l4481 0940  
                                  l4289 1452                                    l4297 14FD  
                                  l4449 14E0                                    l4473 1419  
                                  l4465 1401                                    l4801 0BFF  
                                  l5433 03B0                                    l5425 0384  
                                  l5409 0366                                    l5361 029A  
                                  l5353 0286                                    l5345 0272  
                                  l5337 0256                                    l5329 0242  
                                  l5281 01A5                                    l5273 017F  
                                  l5257 015A                                    l5249 0141  
                                  l5265 0170                                    l4379 17DD  
                                  l4387 17F1                                    l4395 16DD  
                                  l4731 09E4                                    l4723 09D7  
                                  l4571 148D                                    l4563 1479  
                                  l4715 0FD8                                    l4707 0FA4  
                                  l4651 0EAB                                    l4643 0E96  
                                  l4635 0E7B                                    l4619 0E66  
                                  l4627 0E6E                                    l5179 0E45  
                                  l5099 0D4D                                    l4555 1125  
                                  l4547 09D0                                    l4539 09C8  
                                  l4483 0945                                    l4475 1420  
                                  l4467 1405                                    l4459 13F1  
                                  l4811 0C16                                    l4803 0C0C  
                                  l5451 03CC                                    l5435 03B4  
                                  l5427 038A                                    l5363 02A0  
                                  l5355 0289                                    l5347 0278  
                                  l5339 0258                                    l5291 01B8  
                                  l5283 01A7                                    l5275 0184  
                                  l5267 0176                                    l5259 0161  
                                  l5195 0045                                    l4389 17F6  
                                  l4397 16DE                                    l4741 09F4  
                                  l4733 09E6                                    l4725 09DC  
                                  l4901 0AE4                                    l4573 1492  
                                  l4565 147E                                    l4717 0FDC  
                                  l4709 0FAF                                    l4637 0E81  
                                  l4645 0E99                                    l4629 0E73  
                                  l4557 112C                                    l4493 0959  
                                  l4485 0952                                    l4581 1685  
                                  l4469 1409                                    l4477 1426  
                                  l4821 0C2E                                    l4813 0C1D  
                                  l4805 0C0E                                    l5453 03D3  
                                  l5445 03C1                                    l5437 03B6  
                                  l5429 0390                                    l5381 02DE  
                                  l5373 02BF                                    l5365 02A5  
                                  l5357 028C                                    l5293 01C9  
                                  l5285 01AC                                    l5277 0195  
                                  l5197 004A                                    l4399 16E2  
                                  l4751 0A0A                                    l4743 09F6  
                                  l4735 09E7                                    l4911 0B20  
                                  l4903 0AEC                                    l4575 1493  
                                  l4567 1483                                    l4719 0FF5  
                                  l4671 0EDF                                    l4647 0E9F  
                                  l4639 0E87                                    l4495 095E  
                                  l4487 0957                                    l4591 16D6  
                                  l4583 168A                                    l4831 0C5A  
                                  l4823 0C39                                    l4807 0C14  
                                  l5447 03C6                                    l5439 03B9  
                                  l5391 02F6                                    l5383 02E7  
                                  l5375 02D2                                    l5367 02A9  
                                  l5359 0293                                    l5295 01D4  
                                  l5287 01B1                                    l5279 01A0  
                                  l5463 03EE                                    l5199 0052  
                                  l4761 0A34                                    l4737 09ED  
                                  l4745 09FC                                    l4729 09DE  
                                  l4921 0B46                                    l4913 0B28  
                                  l4905 0AF9                                    l4577 1494  
                                  l4569 1488                                    l4681 0F1D  
                                  l4673 0EF1                                    l4665 0EBD  
                                  l4649 0EA5                                    l4657 0EB5  
                                  l4497 0964                                    l4593 16D7  
                                  l4585 1698                                    l4841 0C8C  
                                  l4833 0C64                                    l4825 0C41  
                                  l5449 03C9                                    l5393 0315  
                                  l5385 02EC                                    l5377 02D7  
                                  l5369 02AC                                    l5465 040A  
                                  l5297 01E2                                    l5289 01B3  
                                  l4763 0A4A                                    l4747 0A02  
                                  l4755 0A0F                                    l4739 09F2  
                                  l4931 0B7E                                    l4923 0B4C  
                                  l4915 0B30                                    l4907 0B08  
                                  l4579 14A3                                    l4691 0F34  
                                  l4675 0EFD                                    l4667 0ECA  
                                  l4659 0EBB                                    l4499 096A  
                                  l4587 16A8                                    l4595 11DD  
                                  l4851 0CBE                                    l4843 0C96  
                                  l4835 0C6E                                    l4827 0C4E  
                                  l4819 0C1F                                    l5459 03DB  
                                  l5395 0326                                    l5387 02F1  
                                  l5379 02DA                                    l5299 01E7  
                                  l4861 125B                                    l4765 0A52  
                                  l4757 0A17                                    l4749 0A08  
                                  l4933 0B86                                    l4925 0B54  
                                  l4917 0B36                                    l4909 0B17  
                                  l4693 0F3F                                    l4677 0F04  
                                  l4669 0ED2                                    l4589 16BF  
                                  l4941 041A                                    l4597 11DF  
                                  l4853 0CC8                                    l4845 0CA0  
                                  l4837 0C78                                    l4829 0C51  
                                  l4781 0BC3                                    l4773 0BA8  
                                  l5397 032B                                    l4863 1266  
                                  l4599 1631                                    l4767 0A67  
                                  l4759 0A1F                                    l4935 0B8E  
                                  l4927 0B5C                                    l4919 0B3E  
                                  l4871 0A80                                    l4695 0F4A  
                                  l4679 0F0F                                    l4687 0F1F  
                                  l4951 048E                                    l4943 047B  
                                  l4855 0CD2                                    l4847 0CAA  
                                  l4839 0C82                                    l4791 0BDC  
                                  l4783 0BC9                                    l4775 0BB0  
                                  l5399 032E                                    l4857 124B  
                                  l4769 0A7C                                    l4929 0B75  
                                  l4937 0B94                                    l4881 0A99  
                                  l4873 0A86                                    l4697 0F55  
                                  l4689 0F28                                    l5497 0624  
                                  l4961 0498                                    l4953 048F  
                                  l4945 0486                                    l4849 0CB4  
                                  l4793 0BDF                                    l4785 0BCE  
                                  l4777 0BBC                                    _ADFM 04FF  
                                  l4859 1251                                    l4867 1273  
                                  l4891 0AC8                                    l4883 0AA2  
                                  l4875 0A87                                    l4699 0F5A  
                                  l4971 04F5                                    l4963 04A4  
                                  l4947 048C                                    l4955 0491  
                                  l4939 0414                                    l4795 0BE5  
                                  l4787 0BD1                                    l4779 0BC2  
                                  ?_isr 0070                                    l4885 0AA8  
                                  l4877 0A87                                    l4981 056D  
                                  l4973 04FD                                    l4965 04BC  
                                  l4957 0496                                    l4949 048D  
                                  l4797 0BF0                                    l4789 0BD7  
                                  l4887 0AB8                                    l4879 0A8F  
                                  l4991 0596                                    l4983 0575  
                                  l4975 0531                                    l4967 04C1  
                                  l4799 0BF7                                    l4897 0ACA  
                                  l4889 0AC2                                    l4993 05A5  
                                  l4985 057C                                    l4977 0539  
                                  l4969 04F1                                    l4899 0AD9  
                                  l4987 0587                                    l4979 0569  
                                  l4989 0592                                    l4999 05A7  
                                  _ADON 00F8                                    STR_1 08C7  
                                  STR_2 08CD                                    STR_3 08B2  
                                  STR_4 08B5                                    STR_5 08B8  
                                  STR_6 08BB                                    STR_7 077B  
                                  STR_8 08A6                                    STR_9 08AF  
                                  _CREN 00C4                                    _T0CS 040D  
                                  u4000 172C                                    u4001 172B  
                                  u4010 14B7                                    u4011 14B6  
                                  u4100 1409                                    u4101 1408  
                                  u4030 14C9                                    u4110 1413  
                                  u4031 14C8                                    u4111 1412  
                                  u4200 098D                                    u5000 023C  
                                  u4201 098C                                    u4025 14BB  
                                  u5001 023B                                    u4210 0992  
                                  u4050 14DA                                    u4130 1426  
                                  u5010 0242                                    u4211 0991  
                                  u4051 14D9                                    u4131 1425  
                                  u4115 140F                                    u5011 0241  
                                  u4300 0E73                                    u3500 12F7  
                                  u4220 09A6                                    u4140 0957  
                                  u5020 0250                                    u4301 0E72  
                                  u3501 12F6                                    u4221 09A5  
                                  u4205 0989                                    u4141 0956  
                                  u4045 14CA                                    u4125 141A  
                                  u5021 024F                                    u4310 0E7B  
                                  u4230 09BB                                    u4150 095E  
                                  u4070 14EE                                    u5030 0256  
                                  u4311 0E7A                                    u4231 09BA  
                                  u4151 095D                                    u4071 14ED  
                                  u4055 14D6                                    u5031 0255  
                                  u3440 1100                                    u4400 09DC  
                                  u4320 0E81                                    u4240 09C0  
                                  u4160 0964                                    u4080 13F7  
                                  u5040 0272                                    u3441 10FF  
                                  u4401 09DB                                    u4321 0E80  
                                  u4241 09BF                                    u4161 0963  
                                  u4065 14E2                                    u4081 13F6  
                                  u5041 0271                                    u3450 1106  
                                  u4410 09E4                                    u3610 0918  
                                  u4330 0E9F                                    u4250 09C8  
                                  u4170 096A                                    u5050 0278  
                                  u3451 1105                                    u3515 1559  
                                  u4411 09E3                                    u3611 0917  
                                  u4331 0E9E                                    u4251 09C7  
                                  u4235 09B7                                    u4171 0969  
                                  u5051 0277                                    u5107 0165  
                                  u3460 06F5                                    u4420 09ED  
                                  u3540 10ED                                    u4340 0EA5  
                                  u4260 09D0                                    u4180 0978  
                                  u3700 151C                                    u4500 0BCE  
                                  u5060 0326                                    u3461 06F4  
                                  u3525 1569                                    u4421 09EC  
                                  u3541 10EC                                    u3605 08FF  
                                  u4341 0EA4                                    u4261 09CF  
                                  u4181 0977                                    u3701 151B  
                                  u4501 0BCD                                    u5061 0325  
                                  u5117 01DC                                    u3470 13C3  
                                  u4430 09F2                                    u3550 1178  
                                  u3630 0936                                    u4350 0EBB  
                                  u4270 112C                                    u4190 097E  
                                  u3710 1523                                    u4510 0BD7  
                                  u5070 033E                                    u3471 13BF  
                                  u3535 1579                                    u4431 09F1  
                                  u3551 1177                                    u3631 0935  
                                  u3615 0914                                    u4351 0EBA  
                                  u4271 112B                                    u4191 097D  
                                  u3711 1522                                    u4095 13FB  
                                  u5207 05FF                                    u4511 0BD6  
                                  u5071 033D                                    u5127 0263  
                                  u3640 1326                                    u4440 0A02  
                                  u3560 1185                                    u4600 0A8F  
                                  u4360 0EDF                                    u3720 153A  
                                  u4280 11FE                                    u4520 0BDC  
                                  u5080 0355                                    u3641 1325  
                                  u4441 0A01                                    u3561 1184  
                                  u4601 0A8E                                    u3625 0928  
                                  u4361 0EDE                                    u5217 094B  
                                  u3721 1539                                    u4281 11FD  
                                  u4521 0BDB                                    u5081 0354  
                                  u5137 0297                                    u4450 0A08  
                                  u4610 0AF9                                    u3570 08E9  
                                  u3650 139A                                    u3730 1597  
                                  u4370 0EF1                                    u4290 0E5F  
                                  u3810 121F                                    u4530 0BE5  
                                  u5090 0384                                    u4451 0A07  
                                  u4611 0AF8                                    u5307 173A  
                                  u3571 08E8                                    u3731 1596  
                                  u4371 0EF0                                    u4291 0E5E  
                                  u5227 0D80                                    u3811 121E  
                                  u4531 0BE4                                    u5091 0383  
                                  u5147 02B7                                    _PEIE 005E  
                                  u3484 13C6                                    u3900 17F1  
                                  u3820 179E                                    u4460 0A17  
                                  u4620 0B08                                    u3660 1339  
                                  u3740 15B0                                    u4380 0F28  
                                  u4700 05C6                                    u4540 0BF0  
                                  u3901 17F0                                    u3821 179D  
                                  u4461 0A16                                    u4621 0B07  
                                  u5317 1749                                    u3741 15AF  
                                  u4381 0F27                                    u4365 0EDB  
                                  u5237 0DF9                                    u3805 1213  
                                  u4701 05C5                                    u4541 0BEF  
                                  u5157 0346                                    u3910 17F6  
                                  u3830 17A9                                    u3670 1249  
                                  u4630 0BA4                                    u3590 08FD  
                                  u3750 15B7                                    u4390 0F95  
                                  u4710 05D1                                    u4550 0BFF  
                                  u4470 0BB0                                    u5407 13EB  
                                  u3495 13D6                                    u3911 17F5  
                                  u3831 17A8                                    u3671 1248  
                                  u4631 0BA3                                    u4615 0AF5  
                                  u5327 1757                                    u3591 08FC  
                                  u3655 1395                                    u3751 15B6  
                                  u4391 0F94                                    u5247 0E1A  
                                  u4711 05D0                                    u4551 0BFE  
                                  u4471 0BAF                                    u5167 0398  
                                  u3840 17BA                                    u3920 16E2  
                                  u3760 15BD                                    u4800 0D15  
                                  u3680 143A                                    u4720 05DD  
                                  u4640 041A                                    u4560 0C0C  
                                  u4480 0BC2                                    u3841 17B9  
                                  u3921 16E1                                    u4625 0B04  
                                  u5337 176D                                    u3585 08EE  
                                  u3665 1334                                    u3761 15BC  
                                  u5257 0E37                                    u4801 0D14  
                                  u3681 1439                                    u4721 05DC  
                                  u4641 0419                                    u4561 0C0B  
                                  u4545 0BEC                                    u4481 0BC1  
                                  u5177 03D7                                    u3930 16ED  
                                  u3770 15C9                                    u4810 0D1E  
                                  u3690 1461                                    u4730 05E4  
                                  u4650 0496                                    u4570 0C14  
                                  u4490 0BC9                                    u3931 16EC  
                                  u4635 0BA0                                    u5347 1779  
                                  u3771 15C8                                    u5267 0F01  
                                  u4811 0D1D                                    u3691 1460  
                                  u4731 05E2                                    u4651 0495  
                                  u5187 0CD8                                    u4571 0C13  
                                  u4491 0BC8                                    u3860 17CC  
                                  u3940 16F8                                    u4820 0D3E  
                                  u3780 1205                                    u4740 05E5  
                                  u4580 0C4E                                    u4900 00A9  
                                  _RCEN 048B                                    _RCIF 0065  
                                  u3861 17CB                                    u3941 16F7  
                                  u5357 1787                                    u5277 0F17  
                                  u4821 0D3D                                    u3781 1204  
                                  u5197 059E                                    u4581 0C4D  
                                  u4565 0C08                                    u4901 00A8  
                                  u4590 1251                                    u4830 0D47  
                                  u4750 05EB                                    u4910 00CB  
                                  u4591 1250                                    u3855 17BE  
                                  u5367 1795                                    u5287 0FCD  
                                  u4831 0D46                                    u3695 145D  
                                  u4751 05EA                                    u4911 00CA  
                                  u3880 17DD                                    u3960 170A  
                                  u4840 0D5E                                    u4760 0CE6  
                                  u4920 00D1                                    u3881 17DC  
                                  u3961 1709                                    u5377 111F  
                                  u5297 0FF9                                    u4841 0D5D  
                                  u4761 0CE5                                    u4665 04E8  
                                  u4585 0C4A                                    u4921 00D0  
                                  u3970 1714                                    u4850 0D8F  
                                  u4770 0D01                                    u4690 05BB  
                                  u4930 0103                                    u5387 13CC  
                                  u3875 17CD                                    u3971 1713  
                                  u3955 16FC                                    u4851 0D8E  
                                  u4771 0D00                                    u3795 120C  
                                  u4691 05BA                                    u4675 0524  
                                  u4931 0102                                    u4860 0DC9  
                                  u4780 0D08                                    u4940 0108  
                                  u5397 13E1                                    u3885 17D9  
                                  u4861 0DC8                                    u4781 0D07  
                                  u4685 0560                                    u4941 0107  
                                  u3990 1727                                    u4870 0DDB  
                                  u4790 0D0F                                    u4950 0136  
                                  u3895 17E5                                    u3991 1726  
                                  u3975 1710                                    u4871 0DDA  
                                  u4791 0D0E                                    u4951 0135  
                                  u4960 013C                                    u4880 0086  
                                  u3985 171B                                    u4961 013B  
                                  u4881 0085                                    u4970 0141  
                                  u4890 00A3                                    u4971 0140  
                                  u4891 00A2                                    u4980 0176  
                                  u4981 0175                                    u4990 017C  
                                  u4991 017B                                    _TMR0 0001  
                                  _SPEN 00C7                                    _TXIF 0064  
                        ??_eeprom_write 0074                                    _R_nW 04A2  
                ??_store_records_EEPROM 0078                                    _gear 00A0  
                                  _main 0045                                    _menu 00AC  
                                  _time 003E                                    btemp 007E  
                                  _puts 1224                                    start 000C  
                     ___bmul@multiplier 0074                          clcd_write@byte 0075  
                        clcd_write@mode 0072                           _i2c_rep_start 10CE  
                                 ??_isr 0070                            ?_init_ds1307 0070  
                    password_change@key 004F                          ??_display_menu 004C  
                                 ?_main 0070                            ?_read_ds1307 0070  
                                 _ACKEN 048C                                   _ACKDT 048D  
                        ??_display_time 007A                         __end_of___awdiv 1800  
                                 STR_10 07EB                                   STR_11 08C4  
                                 STR_12 078C                                   STR_20 087C  
                                 STR_13 08C1                                   STR_21 083E  
                                 STR_30 0816                                   STR_14 07BD  
                                 STR_22 0886                                   STR_31 07EB  
                                 STR_15 08D0                                   STR_23 07FA  
                                 STR_24 078E                                   STR_40 0871  
                                 STR_16 07DC                                   STR_32 0737  
                                 STR_17 08BE                                   STR_33 0831  
                                 STR_25 0808                                   STR_41 079D  
                                 STR_18 08CA                                   STR_34 0858  
                                 STR_42 0824                                   STR_26 07AD  
                                 STR_50 076A                                   STR_51 089F  
                                 STR_27 0865                                   STR_43 084B  
                                 STR_35 0725                                   STR_19 088F  
                                 STR_44 0879                                   STR_28 08AB  
                                 STR_36 0898                         __end_of___awmod 1736  
                                 STR_45 0879                                   STR_29 07CD  
                                 STR_37 0700                                   STR_46 0879  
                                 STR_38 0878                                   STR_39 0875  
                                 STR_47 0759                                   STR_48 0748  
                                 STR_49 0858                                   ?_puts 0073  
                       __end_of___lldiv 093F                             i2c_read@ack 0072  
                       ___awdiv@divisor 0072                         __end_of___lwdiv 14F3  
                       __end_of___lwmod 142B                                   i1l545 1373  
                          ?_init_config 0070                                   i1l547 1382  
                 ??_eeprom_write_string 0077                         ___awdiv@counter 0076  
                                 _RCREG 001A                                   _SPBRG 0099  
                                 _PORTB 0006                                   _PORTD 0008  
                                 _SSPM3 00A3                                   _TRISB 0086  
                                 _TRISD 0088                                   _SSPEN 00A5  
                                 _TXREG 0019                            ?_init_timer2 0070  
                          main@menu_pos 00CE                                   _nDONE 00FA  
                  __end_of_clear_screen 1125                                   _login 0E56  
                                 main@j 00CC                                   pclath 000A  
                                 puts@s 0073                         __end_of_putchar 10EF  
                                 status 0003                                   wtemp0 007E  
                       __end_of_strncmp 15D8                         __end_of_strncpy 153B  
                     record_event@event 0049                       record_event@speed 004B  
               download_records@records 0049                        init_ds1307@dummy 0076  
                       __initialization 000F                          ?_i2c_rep_start 0070  
                          __end_of_main 0411                    download_records@addr 0054  
                        login@saved_pwd 004F                            __end_of_puts 124A  
                      __end_of_i2c_read 06FF                        __end_of_i2c_stop 10CE  
                                ??_main 005F                                  ??_puts 0075  
              __end_of_download_records 0BA5                                  _ADRESH 001E  
                                ?_login 004B                                  _ADRESL 009E  
                      ___awdiv@dividend 0074                            i2c_read@data 0073  
                                i1l4021 1378                                  i1l4013 1357  
                                i1l4023 137D                                  i1l4015 135D  
                                i1l4025 137F                                  i1l4017 136C  
                                i1l4019 1371                                  i1l4027 1381  
                                u340_20 136C                                  u340_21 136B  
                                u341_20 1371                                  u341_21 1370  
                                u342_20 1378                                  u342_21 1377  
                                u343_20 137D                                  u343_21 137C  
                          _write_ds1307 11A0                                  u339_20 135D  
                                u339_21 135C                                  _TMR0IE 005D  
                                _TMR2IE 0461                                  _TMR2IF 0061  
                                _TMR2ON 0092                                  _SSPADD 0093  
                                _TRISE1 0449                                  _TRISE2 044A  
                                _SSPBUF 0013               view_records@record_number 0038  
           __end_of_init_digital_keypad 10AD                   __end_of_clear_records 1275  
    read_digital_keypad@short_key_press 0075                        __end_of_get_time 1588  
                                ___bmul 1172                 _init_display_controller 1736  
                                ___wmul 11FF                               ??___awdiv 0076  
                             ??___awmod 0076                               ??___lldiv 0049  
                             ??___lwdiv 007A                               ??___lwmod 0076  
                      __end_of_init_i2c 13BB                        __end_of_init_adc 10B4  
                      __end_of_read_adc 1137                        ___awdiv@quotient 0078  
                       ___awmod@divisor 0072                    __end_of_eeprom_write 11DC  
                       ___awmod@counter 0076                                  main@gr 00D2  
                     ??_password_change 004C                                  _strcpy 11DC  
                          __pdataCOMMON 007B                                  login@i 003B  
                                login@j 0054                        __end_of_set_time 06DE  
                                saved_w 007E                               ??_putchar 0072  
                             ??_strncmp 0075                               ??_strncpy 0076  
                         view_records@i 005C                 __end_of__initialization 0041  
                       eeprom_read@addr 0074                         eeprom_read@data 0075  
                  __end_of_display_menu 0A80                    __end_of_display_time 162E  
                       ??_i2c_rep_start 0072                     ___bmul@multiplicand 0072  
              download_records@position 0055                          __pcstackCOMMON 0070  
                          __pidataBANK0 10A2                            __pidataBANK1 1187  
                password_change@usr_pwd 0045                           __end_of_login 1000  
                 download_records@index 0057                         login@reset_flag 004B  
                     __end_of_i2c_start 10C5                       __end_of_i2c_write 10E4  
                         ?_record_event 0049                       _i2c_wait_for_idle 10FA  
               clear_records@reset_flag 0079                                 ??_login 004C  
                    ?_i2c_wait_for_idle 0070                              __pbssBANK0 0020  
                            __pbssBANK1 00B9                               ?_i2c_read 0070  
                  password_change@stage 0033                               ?_i2c_stop 0070  
             ??_init_display_controller 0076                              _clcd_print 12F8  
                   ??_i2c_wait_for_idle 0072                              _clcd_putch 115D  
                            _clcd_write 13BB                              __pmaintext 0045  
                       read_ds1307@addr 0074                         read_ds1307@data 0075  
                          _clear_screen 1114                                 ?___bmul 0072  
                               ?___wmul 0072                              __pintentry 0004  
                               _ACKSTAT 048E                                 ?_strcpy 0072  
                               _T2CKPS0 0090                                 _T2CKPS1 0091  
                        ??_record_event 004C             __end_of_read_digital_keypad 09D4  
             __end_of_i2c_wait_for_idle 1107                            init_i2c@baud 004F  
                               _SSPCON2 0091                               ?_get_time 0070  
                            __stringtab 1000                              ??_i2c_read 0072  
                            ??_i2c_stop 0072                               ?_init_i2c 004F  
                             ?_init_adc 0070                               ?_read_adc 0072  
               eeprom_write_string@addr 0077                 eeprom_write_string@data 0075  
                             ?_set_time 004C                                 ___awdiv 1799  
                               ___awmod 16DD                                 ___lldiv 08D7  
           __end_of_eeprom_write_string 12F8                                 ___lwdiv 14AD  
                               ___lwmod 13F1                        set_time@new_time 0020  
                               __ptext1 0BA5                                 __ptext2 11DC  
                               __ptext3 0411                                 __ptext4 11FF  
                               __ptext5 13F1                                 __ptext6 14AD  
                               __ptext7 1685                                 __ptext8 14F3  
                               __ptext9 142B         __end_of_init_display_controller 1799  
                     __end_of_init_clcd 10FA                  read_digital_keypad@key 0077  
                     ?_download_records 0070                       __end_of_init_uart 1357  
                      ___awmod@dividend 0074                                 _records 00B9  
                        main@reset_flag 00D3                  display_dashboard@event 004E  
                    ??_download_records 0076                  display_dashboard@speed 004B  
                               _putchar 10E4                                 main@key 00D6  
                               clrloop0 10B5                              ??_get_time 0076  
                               _strncmp 1588                                 _strncpy 14F3  
                  end_of_initialization 0041                             set_time@key 0050  
                            ??_init_i2c 0053                              ??_init_adc 0072  
                          _eeprom_write 11BE                              ??_read_adc 0074  
                           ?_clcd_print 0076                             ?_clcd_putch 0049  
                       ___lldiv@divisor 0072                             ?_clcd_write 0072  
                       ___lldiv@counter 004E                         _password_change 0CDD  
                            ??_set_time 004D                            __pstringtext 0700  
                               strcpy@d 0076                            _display_menu 09D4  
                          _display_time 15D8                           i2c_write@data 0072  
                         clcd_print@str 0076                           ??_eeprom_read 0074  
               password_change@pass_pos 002D                           ?_view_records 004B  
                  __end_of_record_event 16DD                          __end_of___bmul 1187  
                          login@usr_pwd 00C8                          __end_of___wmul 1224  
                         __pidataCOMMON 06FF                          __end_of_strcpy 11FF  
                   start_initialization 000F                               _i2c_start 10BC  
                           __end_of_isr 1389                               _i2c_write 10D9  
                   view_records@records 004E                store_records_EEPROM@addr 0066  
                view_records@record_pos 0059                 __end_of_password_change 0E56  
                        ??_view_records 004C                  view_records@reset_flag 004B  
                           putchar@data 0072                          set_time@buffer 0051  
                 __end_of_i2c_rep_start 10D9                                ??___bmul 0073  
                        set_time@t_done 0035                                ??___wmul 0076  
                   __end_of_eeprom_read 12CB                              init_fetch0 114A  
                         ??_init_ds1307 0076                             __pdataBANK0 0062  
                           __pdataBANK1 00A0                           ??_read_ds1307 0074  
                              ??_strcpy 0074                           ??_init_config 007A  
                         ??_init_timer2 0072                             __pbssCOMMON 007A  
                             ___latbits 0002                           __pcstackBANK0 0049  
                         __pcstackBANK1 00CC                              ?_i2c_start 0070  
                            ?_i2c_write 0070                        eeprom_write@addr 0074  
                      eeprom_write@data 0073                        ___lwdiv@dividend 0078  
                         _clear_records 124A                                ?___awdiv 0072  
                              ?___awmod 0072                       _display_dashboard 162E  
                              ?___lldiv 0072                                ?___lwdiv 0076  
                             _clock_reg 0026                                ?___lwmod 0072  
                    ?_display_dashboard 004B                               __pstrings 1000  
             password_change@re_usr_pwd 00C4            __end_of_store_records_EEPROM 146A  
                    login@attempts_left 003A                      set_time@reset_flag 004C  
                   __end_of_init_ds1307 114A                     read_adc@adc_reg_val 0074  
                   ??_display_dashboard 004C                     __end_of_read_ds1307 12A0  
                      ___lwdiv@quotient 004A                                ?_putchar 0070  
                             _init_clcd 10EF               password_change@reset_flag 004B  
                   __end_of_init_config 14AD                               _init_uart 1327  
                              ?_strncmp 0072                                ?_strncpy 0072  
                         ?_write_ds1307 0073                     __end_of_init_timer2 1114  
              ?_init_display_controller 0070                        ?_password_change 004B  
                     interrupt_function 0004                          ___wmul@product 0076  
                             clear_ram0 10B4                             _eeprom_read 12A0  
                          ??_clcd_print 0079                            ??_clcd_putch 007A  
                          ??_clcd_write 0073                          ?_clear_records 0070  
             __end_of_display_dashboard 1685                               main@F1249 00B6  
                           __stringbase 1012                       ___wmul@multiplier 0072  
                  __end_of_view_records 0CDD                               main@event 00CF  
                          _record_count 0062                            _record_event 1685  
                             main@speed 00D5                             ??_i2c_start 0072  
                    __end_of_clcd_print 1327                             ??_i2c_write 0072  
                    __end_of_clcd_putch 1172                      __end_of_clcd_write 13F1  
                            ?_init_clcd 0070                              ?_init_uart 004F  
                        ??_write_ds1307 0074                     _init_digital_keypad 10A7  
                              _i2c_read 06DE                                _i2c_stop 10C5  
                     set_time@blink_pos 002F                           set_time@blink 0036  
                  ?_init_digital_keypad 0070                             _init_ds1307 1137  
                    __end_of__stringtab 1012                             _read_ds1307 1275  
                           _init_config 146A                             _init_timer2 1107  
                       ___lwdiv@divisor 0076                         ___lwdiv@counter 0049  
                              __ptext10 093F                                __ptext11 1125  
                              __ptext20 1389                                __ptext12 0CDD  
                              __ptext21 08D7                                __ptext13 12CB  
                              __ptext30 10E4                                __ptext22 1137  
                              __ptext14 11BE                                __ptext31 12A0  
                              __ptext23 11A0                                __ptext15 0E56  
                              __ptext40 10CE                                __ptext32 1172  
                              __ptext24 10A7                                __ptext16 1588  
                              __ptext41 10C5                                __ptext33 09D4  
                              __ptext25 10EF                                __ptext17 146A  
                              __ptext50 13BB                                __ptext42 10BC  
                              __ptext34 1114                                __ptext26 1736  
                              __ptext18 1327                                __ptext51 1357  
                              __ptext43 06DE                                __ptext35 162E  
                              __ptext27 10AD                                __ptext19 1107  
                              __ptext44 10FA                                __ptext36 15D8  
                              __ptext28 0A80                                __ptext45 115D  
                              __ptext37 153B                                __ptext29 1224  
                              __ptext46 16DD                                __ptext38 1275  
                              __ptext47 1799                                __ptext39 10D9  
                              __ptext48 124A                                __ptext49 12F8  
                              _get_time 153B                              strcpy@dest 0077  
                       main@screen_flag 00D4                                _init_i2c 1389  
                              _init_adc 10AD                                _read_adc 1125  
               read_digital_keypad@mode 0076                         ??_clear_records 0079  
                  _store_records_EEPROM 142B                           ?_clear_screen 0070  
                              _set_time 0411                   ??_init_digital_keypad 0072  
                              isr@count 0029                            set_time@wait 0037  
                              init_ram0 114E                             ??_init_clcd 0078  
                           ??_init_uart 0053                                login@key 0053  
                              intlevel1 0000                           init_uart@baud 004F  
                      ___lwmod@dividend 0074                        ___lldiv@dividend 0076  
                 ?_store_records_EEPROM 0070                        _download_records 0A80  
                             strcpy@src 0072                               stringcode 100A  
                        ??_clear_screen 0076                               strncpy@cp 0079  
            password_change@re_pass_pos 002B                         display_menu@key 004E  
                      view_records@addr 005B                    __end_of_write_ds1307 11BE  
                   _read_digital_keypad 093F                        ___lldiv@quotient 004A  
                       ___lwmod@divisor 0072                         ___lwmod@counter 0076  
                              strncmp@l 0077                                strncmp@n 0073  
                              strncmp@r 0072                                stringtab 1000  
                              strncpy@d 0078                                strncpy@n 0074  
                              strncpy@s 0072                             _return_time 003D  
                       view_records@key 005E                    ?_read_digital_keypad 0070  
                      write_ds1307@addr 0074                        write_ds1307@data 0073  
                         ?_eeprom_write 0073                            ?_eeprom_read 0070  
                  display_menu@menu_pos 0039                            _view_records 0BA5  
read_digital_keypad@long_press_detected 007A                     _eeprom_write_string 12CB  
